BL51 BANKED LINKER/LOCATER V6.22                                                        12/10/2019  11:35:57  PAGE 1


BL51 BANKED LINKER/LOCATER V6.22, INVOKED BY:
C:\KEIL_V5\C51\BIN\BL51.EXE .\output\Main.obj, .\output\Initial.obj, .\output\Interrupt.obj, .\output\AfeProcess.obj, .\
>> output\ShutDown.obj, .\output\Key.obj, .\output\Led.obj, .\output\Uart.obj, .\output\Common.obj, .\output\Memory.obj,
>>  .\output\STARTUP.obj, .\output\AfeMtp.obj, .\output\Balance.obj, .\output\Calibrate.obj, .\output\Calculate.obj, .\o
>> utput\GasGauge.obj, .\output\McuFlash.obj, .\output\ExtE2PRom.obj, .\output\RTC.obj, .\output\TwiIO.obj, .\output\Twi
>> Module.obj, .\output\ISP.obj TO .\output\MCUCore PRINT (.\output\MCUCore.m51) RAMSIZE (256) DISABLEWARNING (15, 16) C
>> ODE (?CO?MEMORY (0X01FE), ?PR?*?ISP (0XF400)) XDATA (0X0200-0X0AFF)


MEMORY MODEL: LARGE


INPUT MODULES INCLUDED:
  .\output\Main.obj (MAIN)
  .\output\Initial.obj (INITIAL)
  .\output\Interrupt.obj (INTERRUPT)
  .\output\AfeProcess.obj (AFEPROCESS)
  .\output\ShutDown.obj (SHUTDOWN)
  .\output\Key.obj (KEY)
  .\output\Led.obj (LED)
  .\output\Uart.obj (UART)
  .\output\Common.obj (COMMON)
  .\output\Memory.obj (MEMORY)
  .\output\STARTUP.obj (?C_STARTUP)
  .\output\AfeMtp.obj (AFEMTP)
  .\output\Balance.obj (BALANCE)
  .\output\Calibrate.obj (CALIBRATE)
  .\output\Calculate.obj (CALCULATE)
  .\output\GasGauge.obj (GASGAUGE)
  .\output\McuFlash.obj (MCUFLASH)
  .\output\ExtE2PRom.obj (EXTE2PROM)
  .\output\RTC.obj (RTC)
  .\output\TwiIO.obj (TWIIO)
  .\output\TwiModule.obj (TWIMODULE)
  .\output\ISP.obj (ISP)
  C:\KEIL_V5\C51\LIB\C51L.LIB (?C?CLDPTR)
  C:\KEIL_V5\C51\LIB\C51L.LIB (?C?IMUL)
  C:\KEIL_V5\C51\LIB\C51L.LIB (?C?UIDIV)
  C:\KEIL_V5\C51\LIB\C51L.LIB (?C?SIDIV)
  C:\KEIL_V5\C51\LIB\C51L.LIB (?C?IILDX)
  C:\KEIL_V5\C51\LIB\C51L.LIB (?C?LMUL)
  C:\KEIL_V5\C51\LIB\C51L.LIB (?C?ULDIV)
  C:\KEIL_V5\C51\LIB\C51L.LIB (?C?SLDIV)
  C:\KEIL_V5\C51\LIB\C51L.LIB (?C?LNEG)
  C:\KEIL_V5\C51\LIB\C51L.LIB (?C?SLCMP)
  C:\KEIL_V5\C51\LIB\C51L.LIB (?C?ULCMP)
  C:\KEIL_V5\C51\LIB\C51L.LIB (?C?ULSHR)
  C:\KEIL_V5\C51\LIB\C51L.LIB (?C?SLSHR)
  C:\KEIL_V5\C51\LIB\C51L.LIB (?C?LSHL)
  C:\KEIL_V5\C51\LIB\C51L.LIB (?C?LSTXDATA)
  C:\KEIL_V5\C51\LIB\C51L.LIB (?C?LSTKXDATA)
  C:\KEIL_V5\C51\LIB\C51L.LIB (?C?CCASE)
  C:\KEIL_V5\C51\LIB\C51L.LIB (?C?LIMUL)


LINK MAP OF MODULE:  .\output\MCUCore (MAIN)


BL51 BANKED LINKER/LOCATER V6.22                                                      12/10/2019  11:35:57  PAGE 2


            TYPE    BASE      LENGTH    RELOCATION   SEGMENT NAME
            -----------------------------------------------------

            * * * * * * *   D A T A   M E M O R Y   * * * * * * *
            REG     0000H     0008H     ABSOLUTE     "REG BANK 0"
            DATA    0008H     000FH     UNIT         ?DT?MEMORY
            IDATA   0017H     0004H     UNIT         ?ID?MEMORY
            IDATA   001BH     0002H     UNIT         _IDATA_GROUP_
                    001DH     0003H                  *** GAP ***
            DATA    0020H     0006H     BIT_ADDR     ?BA?MEMORY
            BIT     0026H.0   0005H.6   UNIT         ?BI?MEMORY
            BIT     002BH.6   0000H.6   UNIT         _BIT_GROUP_
                    002CH.4   0000H.4                *** GAP ***
            DATA    002DH     000BH     UNIT         _DATA_GROUP_
                    0038H     0068H                  *** GAP ***
            IDATA   00A0H     0060H     ABSOLUTE     

            * * * * * * *  X D A T A   M E M O R Y  * * * * * * *
            XDATA   0000H     0002H     ABSOLUTE     
            XDATA   0002H     0014H     ABSOLUTE     
            XDATA   0016H     0004H     ABSOLUTE     
            XDATA   001AH     0004H     ABSOLUTE     
            XDATA   001EH     0004H     ABSOLUTE     
            XDATA   0022H     0002H     ABSOLUTE     
            XDATA   0024H     0002H     ABSOLUTE     
            XDATA   0026H     0002H     ABSOLUTE     
            XDATA   0028H     0002H     ABSOLUTE     
            XDATA   002AH     0001H     ABSOLUTE     
            XDATA   002BH     0001H     ABSOLUTE     
            XDATA   002CH     0002H     ABSOLUTE     
            XDATA   002EH     0001H     ABSOLUTE     
            XDATA   002FH     0001H     ABSOLUTE     
            XDATA   0030H     0002H     ABSOLUTE     
            XDATA   0032H     0002H     ABSOLUTE     
            XDATA   0034H     0001H     ABSOLUTE     
            XDATA   0035H     000CH     ABSOLUTE     
            XDATA   0041H     0004H     ABSOLUTE     
            XDATA   0045H     0002H     ABSOLUTE     
            XDATA   0047H     000CH     ABSOLUTE     
            XDATA   0053H     000CH     ABSOLUTE     
            XDATA   005FH     0002H     ABSOLUTE     
            XDATA   0061H     0001H     ABSOLUTE     
            XDATA   0062H     0002H     ABSOLUTE     
            XDATA   0064H     0002H     ABSOLUTE     
            XDATA   0066H     0001H     ABSOLUTE     
            XDATA   0067H     0001H     ABSOLUTE     
            XDATA   0068H     0002H     ABSOLUTE     
            XDATA   006AH     0002H     ABSOLUTE     
            XDATA   006CH     0001H     ABSOLUTE     
            XDATA   006DH     0004H     ABSOLUTE     
            XDATA   0071H     0001H     ABSOLUTE     
            XDATA   0072H     0001H     ABSOLUTE     
            XDATA   0073H     0001H     ABSOLUTE     
            XDATA   0074H     0002H     ABSOLUTE     
            XDATA   0076H     0002H     ABSOLUTE     
            XDATA   0078H     0001H     ABSOLUTE     
            XDATA   0079H     0001H     ABSOLUTE     
BL51 BANKED LINKER/LOCATER V6.22                                                      12/10/2019  11:35:57  PAGE 3


            XDATA   007AH     0002H     ABSOLUTE     
            XDATA   007CH     0001H     ABSOLUTE     
            XDATA   007DH     0004H     ABSOLUTE     
            XDATA   0081H     0001H     ABSOLUTE     
            XDATA   0082H     0004H     ABSOLUTE     
            XDATA   0086H     0001H     ABSOLUTE     
            XDATA   0087H     0001H     ABSOLUTE     
            XDATA   0088H     0001H     ABSOLUTE     
            XDATA   0089H     0002H     ABSOLUTE     
            XDATA   008BH     0001H     ABSOLUTE     
            XDATA   008CH     0001H     ABSOLUTE     
            XDATA   008DH     0001H     ABSOLUTE     
            XDATA   008EH     0002H     ABSOLUTE     
            XDATA   0090H     0002H     ABSOLUTE     
            XDATA   0092H     0002H     ABSOLUTE     
            XDATA   0094H     0002H     ABSOLUTE     
            XDATA   0096H     0001H     ABSOLUTE     
            XDATA   0097H     0001H     ABSOLUTE     
            XDATA   0098H     0001H     ABSOLUTE     
            XDATA   0099H     0002H     ABSOLUTE     
            XDATA   009BH     0002H     ABSOLUTE     
            XDATA   009DH     0002H     ABSOLUTE     
            XDATA   009FH     0002H     ABSOLUTE     
            XDATA   00A1H     0001H     ABSOLUTE     
            XDATA   00A2H     0002H     ABSOLUTE     
            XDATA   00A4H     0002H     ABSOLUTE     
            XDATA   00A6H     0002H     ABSOLUTE     
            XDATA   00A8H     0001H     ABSOLUTE     
            XDATA   00A9H     0001H     ABSOLUTE     
            XDATA   00AAH     0001H     ABSOLUTE     
            XDATA   00ABH     0002H     ABSOLUTE     
            XDATA   00ADH     0001H     ABSOLUTE     
            XDATA   00AEH     0002H     ABSOLUTE     
            XDATA   00B0H     0002H     ABSOLUTE     
            XDATA   00B2H     0002H     ABSOLUTE     
            XDATA   00B4H     0002H     ABSOLUTE     
            XDATA   00B6H     0002H     ABSOLUTE     
            XDATA   00B8H     0001H     ABSOLUTE     
            XDATA   00B9H     0001H     ABSOLUTE     
            XDATA   00BAH     0144H     ABSOLUTE     
            XDATA   01FEH     0002H     ABSOLUTE     
            XDATA   0200H     006BH     UNIT         _XDATA_GROUP_
                    026BH     0065H                  *** GAP ***
            XDATA   02D0H     0001H     ABSOLUTE     
            XDATA   02D1H     0001H     ABSOLUTE     
            XDATA   02D2H     0001H     ABSOLUTE     
            XDATA   02D3H     0001H     ABSOLUTE     
            XDATA   02D4H     0001H     ABSOLUTE     
            XDATA   02D5H     0001H     ABSOLUTE     
            XDATA   02D6H     0001H     ABSOLUTE     
            XDATA   02D7H     0001H     ABSOLUTE     
            XDATA   02D8H     0001H     ABSOLUTE     
            XDATA   02D9H     0001H     ABSOLUTE     
            XDATA   02DAH     0001H     ABSOLUTE     
            XDATA   02DBH     0001H     ABSOLUTE     
            XDATA   02DCH     0001H     ABSOLUTE     
            XDATA   02DDH     0001H     ABSOLUTE     
BL51 BANKED LINKER/LOCATER V6.22                                                      12/10/2019  11:35:57  PAGE 4


            XDATA   02DEH     0001H     ABSOLUTE     
            XDATA   02DFH     0001H     ABSOLUTE     
            XDATA   02E0H     0113H     UNIT         ?XD?MEMORY
                    03F3H     000DH                  *** GAP ***
            XDATA   0400H     0096H     ABSOLUTE     
            XDATA   0496H     0001H     ABSOLUTE     
            XDATA   0497H     0001H     ABSOLUTE     
            XDATA   0498H     0001H     ABSOLUTE     

            * * * * * * *   C O D E   M E M O R Y   * * * * * * *
            CODE    0000H     0003H     ABSOLUTE     
            CODE    0003H     0003H     ABSOLUTE     
            CODE    0006H     001DH     UNIT         ?PR?LEDPOWEROFF?LED
            CODE    0023H     0003H     ABSOLUTE     
                    0026H     0005H                  *** GAP ***
            CODE    002BH     0003H     ABSOLUTE     
            CODE    002EH     0023H     UNIT         ?PR?CELLOPENPROCESS?BALANCE
                    0051H     0002H                  *** GAP ***
            CODE    0053H     0003H     ABSOLUTE     
            CODE    0056H     019AH     UNIT         ?PR?INITGASGAUGE?GASGAUGE
            CODE    01F0H     000DH     UNIT         ?PR?INITSEALCALIBRATE?INITIAL
                    01FDH     0001H                  *** GAP ***
            CODE    01FEH     0005H     UNIT         ?CO?MEMORY
            CODE    0203H     0493H     UNIT         ?PR?GAUGEMANAGE?GASGAUGE
            CODE    0696H     02E8H     UNIT         ?C?LIB_CODE
            CODE    097EH     02DEH     UNIT         ?PR?TEMPEPROTECT?AFEPROCESS
            CODE    0C5CH     0256H     UNIT         ?PR?_CALCUTEMP?CALCULATE
            CODE    0EB2H     020EH     UNIT         ?PR?UARTRDCMDPROCESS?UART
            CODE    10C0H     0205H     UNIT         ?PR?_E2PROMBKDATA?EXTE2PROM
            CODE    12C5H     01ECH     UNIT         ?PR?CURRPROCESS?AFEPROCESS
            CODE    14B1H     01C4H     UNIT         ?PR?_TWIREAD?TWIMODULE
            CODE    1675H     01BBH     UNIT         ?PR?INITSYSPARA?INITIAL
            CODE    1830H     0170H     UNIT         ?PR?CALCUVOLTAGE?CALCULATE
            CODE    19A0H     0167H     UNIT         ?PR?VOLPROTECT?AFEPROCESS
            CODE    1B07H     0150H     UNIT         ?PR?_TWIWRITE?TWIMODULE
            CODE    1C57H     014CH     UNIT         ?PR?BALMANAGE?BALANCE
            CODE    1DA3H     0149H     UNIT         ?PR?INTERRUPTUART?UART
            CODE    1EECH     0142H     UNIT         ?CO?CALCULATE
            CODE    202EH     0138H     UNIT         ?PR?LEDPOWERON?LED
            CODE    2166H     012BH     UNIT         ?PR?INITRTC?RTC
            CODE    2291H     0104H     UNIT         ?PR?VOLPROCESS?AFEPROCESS
            CODE    2395H     0100H     UNIT         ?CO?TWIMODULE
            CODE    2495H     00FEH     UNIT         ?PR?INITVAR?INITIAL
            CODE    2593H     00E0H     UNIT         ?PR?CALCUTEMPERATURE?CALCULATE
            CODE    2673H     00E0H     UNIT         ?PR?FLASHPROCESS?MCUFLASH
            CODE    2753H     00D3H     UNIT         ?PR?E2PROMBKCHECK?EXTE2PROM
            CODE    2826H     00C6H     UNIT         ?PR?CALIPROCESS?CALIBRATE
            CODE    28ECH     00BCH     UNIT         ?PR?CURRPROTECT?AFEPROCESS
            CODE    29A8H     00B2H     UNIT         ?PR?CHECKLOAD?AFEPROCESS
            CODE    2A5AH     00AEH     UNIT         ?PR?CALIBCURRENT?UART
            CODE    2B08H     00ABH     UNIT         ?PR?MAIN?MAIN
            CODE    2BB3H     00A9H     UNIT         ?PR?PROCESSKEYSPEED?KEY
            CODE    2C5CH     00A7H     UNIT         ?PR?UARTWRCMDPROCESS?UART
            CODE    2D03H     00A7H     UNIT         ?PR?BALPROCESS?BALANCE
            CODE    2DAAH     00A5H     UNIT         ?PR?RTCREADTIME?RTC
            CODE    2E4FH     00A1H     UNIT         ?PR?INTERRUPTTIMER3?INTERRUPT
            CODE    2EF0H     009DH     UNIT         ?PR?CALIVOLTAGESUB?CALIBRATE
BL51 BANKED LINKER/LOCATER V6.22                                                      12/10/2019  11:35:57  PAGE 5


            CODE    2F8DH     0096H     UNIT         ?PR?CALICURRENTSUB?CALIBRATE
            CODE    3023H     0094H     UNIT         ?PR?PORONPROTECT?AFEPROCESS
            CODE    30B7H     0093H     UNIT         ?PR?_WRITEMCUFLASH?MCUFLASH
            CODE    314AH     008FH     UNIT         ?PR?RECOVERYOC?AFEPROCESS
            CODE    31D9H     008BH     UNIT         ?PR?CHECKCHARGER?AFEPROCESS
            CODE    3264H     008AH     UNIT         ?PR?LOWPOWERCHECK?SHUTDOWN
            CODE    32EEH     0086H     UNIT         ?PR?_READMCUFLASH?MCUFLASH
            CODE    3374H     0082H     UNIT         ?PR?INITPWM?INITIAL
            CODE    33F6H     0080H     UNIT         ?PR?INITE2PROM?EXTE2PROM
            CODE    3476H     007EH     UNIT         ?PR?_WRITEE2SECTOR?MCUFLASH
            CODE    34F4H     007BH     UNIT         ?PR?SCANKEY?KEY
            CODE    356FH     0078H     UNIT         ?PR?CALICUROFFSETSUB?CALIBRATE
            CODE    35E7H     0074H     UNIT         ?PR?_UARTWRITEINFO?UART
            CODE    365BH     0070H     UNIT         ?PR?E2PROMERASE?EXTE2PROM
            CODE    36CBH     0069H     UNIT         ?PR?UARTRDE2PROM?EXTE2PROM
            CODE    3734H     0068H     UNIT         ?PR?GETAFEDATA?CALCULATE
            CODE    379CH     0063H     UNIT         ?PR?CHKMOSSTATUS?AFEPROCESS
            CODE    37FFH     0063H     UNIT         ?PR?_UARTREADINFO?UART
            CODE    3862H     0063H     UNIT         ?PR?_E2DATACHECKUP?MCUFLASH
            CODE    38C5H     005FH     UNIT         ?PR?RTCMODIFYTIME?RTC
            CODE    3924H     005EH     UNIT         ?PR?SYSTEMINTOIDLE?SHUTDOWN
            CODE    3982H     005EH     UNIT         ?PR?RAMCHECKPROCESS?COMMON
            CODE    39E0H     005BH     UNIT         ?PR?AFERAMCHECK?AFEPROCESS
            CODE    3A3BH     0057H     UNIT         ?PR?CALITS1SUB?CALIBRATE
            CODE    3A92H     0057H     UNIT         ?PR?CALITS2SUB?CALIBRATE
            CODE    3AE9H     0055H     UNIT         ?PR?WAKEUPPROCESS?SHUTDOWN
            CODE    3B3EH     0055H     UNIT         ?PR?E2PROMBKRTC?EXTE2PROM
            CODE    3B93H     0054H     UNIT         ?PR?E2PROMBKPROCESS?EXTE2PROM
            CODE    3BE7H     0052H     UNIT         ?CO?UART
            CODE    3C39H     0051H     UNIT         ?PR?INTERRUPTINT4?INTERRUPT
            CODE    3C8AH     004FH     UNIT         ?PR?_E2PROMREAD?EXTE2PROM
            CODE    3CD9H     004FH     UNIT         ?PR?UARTRDRTC?EXTE2PROM
            CODE    3D28H     004EH     UNIT         ?PR?_RTCWRITE?RTC
            CODE    3D76H     004EH     UNIT         ?PR?_RTCREAD?RTC
            CODE    3DC4H     004BH     UNIT         ?PR?WAITADCCONVERT?AFEPROCESS
            CODE    3E0FH     004BH     UNIT         ?PR?_TWIWRITEAFE?AFEMTP
            CODE    3E5AH     004BH     UNIT         ?PR?_TWIREADAFE?AFEMTP
            CODE    3EA5H     004AH     UNIT         ?PR?INTERRUPTINT0?INTERRUPT
            CODE    3EEFH     0049H     UNIT         ?PR?CALIBVOLTAGE?UART
            CODE    3F38H     0049H     UNIT         ?PR?CALIBTS1?UART
            CODE    3F81H     0049H     UNIT         ?PR?CALIBTS2?UART
            CODE    3FCAH     0049H     UNIT         ?PR?CALIBRTC?UART
            CODE    4013H     0048H     UNIT         ?PR?ALLINITIAL?INITIAL
            CODE    405BH     0048H     UNIT         ?PR?ALARMPROCESS?AFEPROCESS
            CODE    40A3H     0048H     UNIT         ?PR?_E2PROMWRITE?EXTE2PROM
            CODE    40EBH     0045H     UNIT         ?PR?PARTIALINITIAL?INITIAL
            CODE    4130H     0045H     UNIT         ?PR?KEYPROCESS?KEY
            CODE    4175H     0045H     UNIT         ?PR?WRITEMANUFACTURE?UART
            CODE    41BAH     0044H     UNIT         ?C?LDIV
            CODE    41FEH     0042H     UNIT         ?PR?CONTROLMOS?AFEPROCESS
            CODE    4240H     0041H     UNIT         ?PR?E2PROMBKBOOT?EXTE2PROM
            CODE    4281H     003EH     UNIT         ?PR?CALIRTCTIME?CALIBRATE
            CODE    42BFH     003BH     UNIT         ?PR?_OPENBAL?BALANCE
            CODE    42FAH     003AH     UNIT         ?PR?LOWPOWERPROCESS?SHUTDOWN
            CODE    4334H     0037H     UNIT         ?PR?READSUBCLASSID?UART
            CODE    436BH     0037H     UNIT         ?PR?_MEMORYCOPY?COMMON
            CODE    43A2H     0036H     UNIT         ?PR?CALIBCUROFFSET?UART
BL51 BANKED LINKER/LOCATER V6.22                                                      12/10/2019  11:35:57  PAGE 6


            CODE    43D8H     0034H     UNIT         ?PR?INITIAL?INITIAL
            CODE    440CH     0034H     UNIT         ?PR?CLEARAFEFLG?AFEMTP
            CODE    4440H     0033H     UNIT         ?PR?CLRRAM?COMMON
            CODE    4473H     0033H     UNIT         ?PR?INITAFE?AFEMTP
            CODE    44A6H     0032H     UNIT         ?PR?CHECKCTOVOL?BALANCE
            CODE    44D8H     002EH     UNIT         ?PR?_MEMORYSET?COMMON
            CODE    4506H     002EH     UNIT         ?PR?_FLASH_WIRTE_ONE_BYTE?MCUFLASH
            CODE    4534H     002DH     UNIT         ?PR?PROTECTPROCESS?AFEPROCESS
            CODE    4561H     002DH     UNIT         ?PR?ISPHANDSHAKE?UART
            CODE    458EH     0029H     UNIT         ?PR?_BLACKE2CHECKUP?MCUFLASH
            CODE    45B7H     0027H     UNIT         ?PR?_TWICHECKSTATUS?TWIMODULE
            CODE    45DEH     0026H     UNIT         ?PR?INITGPIO?INITIAL
            CODE    4604H     0022H     UNIT         ?PR?INITIRQ?INITIAL
            CODE    4626H     0022H     UNIT         ?PR?CLOSEBAL?BALANCE
            CODE    4648H     0021H     UNIT         ?PR?INITUART0?UART
            CODE    4669H     0020H     UNIT         ?PR?INTOPOWERDOWN?AFEPROCESS
            CODE    4689H     001FH     UNIT         ?PR?_CRC8CAL?TWIMODULE
            CODE    46A8H     001CH     UNIT         ?PR?SYSTEMINTOPD?SHUTDOWN
            CODE    46C4H     0019H     UNIT         ?PR?_DELAY1MS?COMMON
            CODE    46DDH     0015H     UNIT         ?PR?WRITEFLASHCHECK?MCUFLASH
            CODE    46F2H     0014H     UNIT         ?C_C51STARTUP
            CODE    4706H     0014H     UNIT         ?PR?INITTWI?TWIMODULE
            CODE    471AH     0013H     UNIT         ?PR?RESETINIT?COMMON
            CODE    472DH     0012H     UNIT         ?PR?INITTIMER?INITIAL
            CODE    473FH     0012H     UNIT         ?PR?UARTHANDSHAKE?UART
            CODE    4751H     000FH     UNIT         ?PR?INITCLK?INITIAL
            CODE    4760H     000CH     UNIT         ?PR?INTOIDLE?COMMON
            CODE    476CH     000CH     UNIT         ?PR?INTOPD?COMMON
            CODE    4778H     000CH     UNIT         ?PR?BATTERYINFOMANAGE?CALCULATE
                    4784H     AC7CH                  *** GAP ***
            CODE    F400H     0109H     UNIT         ?PR?ISPPROCESS?ISP
            CODE    F509H     02B7H     UNIT         ?PR?ISPPROCESSCMD?ISP



OVERLAY MAP OF MODULE:   .\output\MCUCore (MAIN)


SEGMENT                                       BIT_GROUP          DATA_GROUP          IDATA_GROUP         XDATA_GROUP
  +--> CALLED SEGMENT                      START    LENGTH     START    LENGTH     START    LENGTH     START    LENGTH
----------------------------------------------------------------------------------------------------------------------
?PR?INTERRUPTINT4?INTERRUPT                -----    -----      -----    -----      -----    -----      -----    -----
  +--> ?PR?INITCLK?INITIAL

*** NEW ROOT ***************************************************

?PR?INTERRUPTINT0?INTERRUPT                -----    -----      -----    -----      -----    -----      -----    -----
  +--> ?PR?INITCLK?INITIAL

*** NEW ROOT ***************************************************

?PR?INTERRUPTTIMER3?INTERRUPT              -----    -----      -----    -----      -----    -----      -----    -----
  +--> ?PR?SCANKEY?KEY

*** NEW ROOT ***************************************************

?PR?INTERRUPTUART?UART                     -----    -----      -----    -----      -----    -----      -----    -----
BL51 BANKED LINKER/LOCATER V6.22                                                      12/10/2019  11:35:57  PAGE 7


  +--> ?PR?UARTRDCMDPROCESS?UART
  +--> ?PR?ISPHANDSHAKE?UART
  +--> ?PR?UARTWRCMDPROCESS?UART

?PR?UARTRDCMDPROCESS?UART                  -----    -----      -----    -----      -----    -----      0200H    0002H
  +--> ?PR?UARTHANDSHAKE?UART
  +--> ?PR?_UARTREADINFO?UART
  +--> ?PR?ISPHANDSHAKE?UART
  +--> ?CO?UART

?PR?_UARTREADINFO?UART                     -----    -----      -----    -----      -----    -----      -----    -----
  +--> ?PR?_CRC8CAL?TWIMODULE

?PR?_CRC8CAL?TWIMODULE                     -----    -----      -----    -----      -----    -----      -----    -----
  +--> ?CO?TWIMODULE

?PR?ISPHANDSHAKE?UART                      -----    -----      -----    -----      -----    -----      -----    -----
  +--> ?CO?UART

?PR?UARTWRCMDPROCESS?UART                  -----    -----      -----    -----      -----    -----      0200H    0002H
  +--> ?PR?WRITEMANUFACTURE?UART
  +--> ?PR?READSUBCLASSID?UART
  +--> ?PR?CALIBCURRENT?UART
  +--> ?PR?CALIBVOLTAGE?UART
  +--> ?PR?CALIBCUROFFSET?UART
  +--> ?PR?CALIBTS1?UART
  +--> ?PR?CALIBTS2?UART
  +--> ?PR?CALIBRTC?UART
  +--> ?CO?UART
  +--> ?PR?_UARTWRITEINFO?UART

?PR?WRITEMANUFACTURE?UART                  -----    -----      -----    -----      -----    -----      -----    -----
  +--> ?PR?_CRC8CAL?TWIMODULE

?PR?READSUBCLASSID?UART                    -----    -----      -----    -----      -----    -----      -----    -----
  +--> ?PR?_CRC8CAL?TWIMODULE

?PR?CALIBCURRENT?UART                      -----    -----      -----    -----      -----    -----      -----    -----
  +--> ?PR?_CRC8CAL?TWIMODULE

?PR?CALIBVOLTAGE?UART                      -----    -----      -----    -----      -----    -----      -----    -----
  +--> ?PR?_CRC8CAL?TWIMODULE

?PR?CALIBCUROFFSET?UART                    -----    -----      -----    -----      -----    -----      -----    -----
  +--> ?PR?_CRC8CAL?TWIMODULE

?PR?CALIBTS1?UART                          -----    -----      -----    -----      -----    -----      -----    -----
  +--> ?PR?_CRC8CAL?TWIMODULE

?PR?CALIBTS2?UART                          -----    -----      -----    -----      -----    -----      -----    -----
  +--> ?PR?_CRC8CAL?TWIMODULE

?PR?CALIBRTC?UART                          -----    -----      -----    -----      -----    -----      -----    -----
  +--> ?PR?_CRC8CAL?TWIMODULE

?PR?_UARTWRITEINFO?UART                    -----    -----      -----    -----      -----    -----      0202H    0002H
  +--> ?PR?_CRC8CAL?TWIMODULE
BL51 BANKED LINKER/LOCATER V6.22                                                      12/10/2019  11:35:57  PAGE 8



*** NEW ROOT ***************************************************

?C_C51STARTUP                              -----    -----      -----    -----      -----    -----      -----    -----
  +--> ?PR?MAIN?MAIN

?PR?MAIN?MAIN                              -----    -----      -----    -----      -----    -----      -----    -----
  +--> ?PR?INITIAL?INITIAL
  +--> ?PR?RESETINIT?COMMON
  +--> ?PR?_TWIWRITEAFE?AFEMTP
  +--> ?PR?ISPPROCESS?ISP
  +--> ?PR?WAKEUPPROCESS?SHUTDOWN
  +--> ?PR?KEYPROCESS?KEY
  +--> ?PR?ALARMPROCESS?AFEPROCESS
  +--> ?PR?CURRPROCESS?AFEPROCESS
  +--> ?PR?BATTERYINFOMANAGE?CALCULATE
  +--> ?PR?BALMANAGE?BALANCE
  +--> ?PR?CELLOPENPROCESS?BALANCE
  +--> ?PR?BALPROCESS?BALANCE
  +--> ?PR?CALIPROCESS?CALIBRATE
  +--> ?PR?FLASHPROCESS?MCUFLASH
  +--> ?PR?E2PROMBKPROCESS?EXTE2PROM
  +--> ?PR?PROTECTPROCESS?AFEPROCESS
  +--> ?PR?RAMCHECKPROCESS?COMMON
  +--> ?PR?LEDPOWEROFF?LED
  +--> ?PR?VOLPROCESS?AFEPROCESS
  +--> ?PR?GAUGEMANAGE?GASGAUGE
  +--> ?PR?AFERAMCHECK?AFEPROCESS
  +--> ?PR?WRITEFLASHCHECK?MCUFLASH
  +--> ?PR?E2PROMBKCHECK?EXTE2PROM
  +--> ?PR?LOWPOWERCHECK?SHUTDOWN
  +--> ?PR?LOWPOWERPROCESS?SHUTDOWN

?PR?INITIAL?INITIAL                        -----    -----      -----    -----      -----    -----      -----    -----
  +--> ?PR?ISPPROCESS?ISP
  +--> ?PR?ALLINITIAL?INITIAL
  +--> ?PR?PARTIALINITIAL?INITIAL

?PR?ISPPROCESS?ISP                         -----    -----      -----    -----      -----    -----      -----    -----
  +--> ?PR?ISPPROCESSCMD?ISP

?PR?ISPPROCESSCMD?ISP                      -----    -----      002DH    000BH      -----    -----      -----    -----

?PR?ALLINITIAL?INITIAL                     -----    -----      -----    -----      -----    -----      -----    -----
  +--> ?PR?INITGPIO?INITIAL
  +--> ?PR?CLRRAM?COMMON
  +--> ?PR?INITTIMER?INITIAL
  +--> ?PR?INITUART0?UART
  +--> ?PR?INITTWI?TWIMODULE
  +--> ?PR?INITSYSPARA?INITIAL
  +--> ?PR?INITVAR?INITIAL
  +--> ?PR?INITPWM?INITIAL
  +--> ?PR?INITAFE?AFEMTP
  +--> ?PR?CLEARAFEFLG?AFEMTP
  +--> ?PR?WAITADCCONVERT?AFEPROCESS
  +--> ?PR?BATTERYINFOMANAGE?CALCULATE
  +--> ?PR?PORONPROTECT?AFEPROCESS
BL51 BANKED LINKER/LOCATER V6.22                                                      12/10/2019  11:35:57  PAGE 9


  +--> ?PR?INITGASGAUGE?GASGAUGE
  +--> ?PR?INITIRQ?INITIAL
  +--> ?PR?INTOPOWERDOWN?AFEPROCESS
  +--> ?PR?INITSEALCALIBRATE?INITIAL
  +--> ?PR?INITE2PROM?EXTE2PROM
  +--> ?PR?INITRTC?RTC

?PR?CLRRAM?COMMON                          -----    -----      -----    -----      001BH    0002H      -----    -----

?PR?INITSYSPARA?INITIAL                    -----    -----      -----    -----      -----    -----      0204H    0004H
  +--> ?PR?_READMCUFLASH?MCUFLASH
  +--> ?PR?SYSTEMINTOPD?SHUTDOWN
  +--> ?PR?_WRITEMCUFLASH?MCUFLASH

?PR?_READMCUFLASH?MCUFLASH                 002BH.6  0000H.1    002DH    0002H      -----    -----      0208H    0004H

?PR?SYSTEMINTOPD?SHUTDOWN                  -----    -----      -----    -----      -----    -----      -----    -----
  +--> ?PR?INTOPOWERDOWN?AFEPROCESS

?PR?INTOPOWERDOWN?AFEPROCESS               -----    -----      -----    -----      -----    -----      -----    -----
  +--> ?PR?_TWIWRITEAFE?AFEMTP

?PR?_TWIWRITEAFE?AFEMTP                    002BH.7  0000H.1    -----    -----      -----    -----      0209H    0004H
  +--> ?PR?_TWIWRITE?TWIMODULE
  +--> ?PR?_DELAY1MS?COMMON

?PR?_TWIWRITE?TWIMODULE                    002CH.2  0000H.1    -----    -----      -----    -----      0234H    000CH
  +--> ?PR?_CRC8CAL?TWIMODULE
  +--> ?PR?_TWICHECKSTATUS?TWIMODULE

?PR?_TWICHECKSTATUS?TWIMODULE              002CH.3  0000H.1    -----    -----      -----    -----      -----    -----

?PR?_WRITEMCUFLASH?MCUFLASH                002CH.0  0000H.1    -----    -----      -----    -----      0208H    0002H
  +--> ?PR?_BLACKE2CHECKUP?MCUFLASH
  +--> ?PR?_WRITEE2SECTOR?MCUFLASH
  +--> ?PR?_E2DATACHECKUP?MCUFLASH

?PR?_WRITEE2SECTOR?MCUFLASH                002CH.1  0000H.1    002DH    0002H      -----    -----      020AH    0002H

?PR?_E2DATACHECKUP?MCUFLASH                -----    -----      002DH    0002H      -----    -----      020AH    0004H

?PR?INITVAR?INITIAL                        -----    -----      -----    -----      -----    -----      -----    -----
  +--> ?PR?_MEMORYSET?COMMON

?PR?_MEMORYSET?COMMON                      -----    -----      -----    -----      -----    -----      0216H    0002H

?PR?INITAFE?AFEMTP                         002BH.6  0000H.1    -----    -----      -----    -----      0207H    0001H
  +--> ?PR?_TWIWRITEAFE?AFEMTP

?PR?CLEARAFEFLG?AFEMTP                     -----    -----      -----    -----      -----    -----      -----    -----
  +--> ?PR?_TWIREADAFE?AFEMTP
  +--> ?PR?_TWIWRITEAFE?AFEMTP

?PR?_TWIREADAFE?AFEMTP                     002CH.0  0000H.1    -----    -----      -----    -----      0209H    0004H
  +--> ?PR?_TWIREAD?TWIMODULE
  +--> ?PR?_DELAY1MS?COMMON

BL51 BANKED LINKER/LOCATER V6.22                                                      12/10/2019  11:35:57  PAGE 10


?PR?_TWIREAD?TWIMODULE                     002CH.1  0000H.1    -----    -----      -----    -----      0233H    0038H
  +--> ?PR?_TWICHECKSTATUS?TWIMODULE
  +--> ?PR?_CRC8CAL?TWIMODULE

?PR?WAITADCCONVERT?AFEPROCESS              002BH.6  0000H.1    -----    -----      -----    -----      0204H    0001H
  +--> ?PR?_DELAY1MS?COMMON
  +--> ?PR?_TWIREADAFE?AFEMTP

?PR?BATTERYINFOMANAGE?CALCULATE            -----    -----      -----    -----      -----    -----      -----    -----
  +--> ?PR?GETAFEDATA?CALCULATE
  +--> ?PR?CALCUTEMPERATURE?CALCULATE
  +--> ?PR?CALCUVOLTAGE?CALCULATE

?PR?GETAFEDATA?CALCULATE                   002BH.6  0000H.1    -----    -----      -----    -----      0204H    0001H
  +--> ?PR?_TWIREADAFE?AFEMTP

?PR?CALCUTEMPERATURE?CALCULATE             -----    -----      -----    -----      -----    -----      -----    -----
  +--> ?PR?_CALCUTEMP?CALCULATE

?PR?_CALCUTEMP?CALCULATE                   -----    -----      -----    -----      -----    -----      0204H    0007H
  +--> ?CO?CALCULATE

?PR?CALCUVOLTAGE?CALCULATE                 -----    -----      -----    -----      -----    -----      0204H    0009H

?PR?PORONPROTECT?AFEPROCESS                -----    -----      -----    -----      -----    -----      -----    -----
  +--> ?PR?_TWIWRITEAFE?AFEMTP
  +--> ?PR?CHKMOSSTATUS?AFEPROCESS
  +--> ?PR?CONTROLMOS?AFEPROCESS

?PR?CONTROLMOS?AFEPROCESS                  -----    -----      -----    -----      -----    -----      -----    -----
  +--> ?PR?_TWIWRITEAFE?AFEMTP

?PR?INITGASGAUGE?GASGAUGE                  -----    -----      -----    -----      -----    -----      0204H    0001H

?PR?INITE2PROM?EXTE2PROM                   -----    -----      -----    -----      -----    -----      0205H    0008H
  +--> ?PR?_E2PROMREAD?EXTE2PROM

?PR?_E2PROMREAD?EXTE2PROM                  002BH.6  0000H.1    -----    -----      -----    -----      0216H    0006H
  +--> ?PR?_TWIREAD?TWIMODULE
  +--> ?PR?_DELAY1MS?COMMON

?PR?INITRTC?RTC                            -----    -----      -----    -----      -----    -----      0205H    0011H
  +--> ?PR?_MEMORYSET?COMMON
  +--> ?PR?_E2PROMREAD?EXTE2PROM
  +--> ?PR?_MEMORYCOPY?COMMON
  +--> ?PR?_RTCWRITE?RTC
  +--> ?PR?RTCREADTIME?RTC

?PR?_MEMORYCOPY?COMMON                     -----    -----      -----    -----      -----    -----      0226H    0002H

?PR?_RTCWRITE?RTC                          002CH.1  0000H.1    -----    -----      -----    -----      022FH    0004H
  +--> ?PR?_TWIWRITE?TWIMODULE

?PR?RTCREADTIME?RTC                        002BH.6  0000H.1    -----    -----      -----    -----      0226H    0009H
  +--> ?PR?_RTCREAD?RTC
  +--> ?PR?_RTCWRITE?RTC

BL51 BANKED LINKER/LOCATER V6.22                                                      12/10/2019  11:35:57  PAGE 11


?PR?_RTCREAD?RTC                           002BH.7  0000H.1    -----    -----      -----    -----      022FH    0004H
  +--> ?PR?_TWIREAD?TWIMODULE

?PR?PARTIALINITIAL?INITIAL                 -----    -----      -----    -----      -----    -----      -----    -----
  +--> ?PR?INITGPIO?INITIAL
  +--> ?PR?INITTIMER?INITIAL
  +--> ?PR?INITUART0?UART
  +--> ?PR?INITTWI?TWIMODULE
  +--> ?PR?INITSYSPARA?INITIAL
  +--> ?PR?INITVAR?INITIAL
  +--> ?PR?INITPWM?INITIAL
  +--> ?PR?INITAFE?AFEMTP
  +--> ?PR?CLEARAFEFLG?AFEMTP
  +--> ?PR?WAITADCCONVERT?AFEPROCESS
  +--> ?PR?BATTERYINFOMANAGE?CALCULATE
  +--> ?PR?PORONPROTECT?AFEPROCESS
  +--> ?PR?INITGASGAUGE?GASGAUGE
  +--> ?PR?INITIRQ?INITIAL
  +--> ?PR?INTOPOWERDOWN?AFEPROCESS
  +--> ?PR?INITSEALCALIBRATE?INITIAL
  +--> ?PR?INITE2PROM?EXTE2PROM
  +--> ?PR?INITRTC?RTC

?PR?WAKEUPPROCESS?SHUTDOWN                 -----    -----      -----    -----      -----    -----      -----    -----
  +--> ?PR?INITCLK?INITIAL
  +--> ?PR?_DELAY1MS?COMMON
  +--> ?PR?INITIRQ?INITIAL
  +--> ?PR?_TWIWRITEAFE?AFEMTP

?PR?KEYPROCESS?KEY                         -----    -----      -----    -----      -----    -----      -----    -----
  +--> ?PR?PROCESSKEYSPEED?KEY
  +--> ?PR?LEDPOWERON?LED
  +--> ?PR?INTOPOWERDOWN?AFEPROCESS
  +--> ?PR?_DELAY1MS?COMMON

?PR?ALARMPROCESS?AFEPROCESS                -----    -----      -----    -----      -----    -----      -----    -----
  +--> ?PR?_TWIREADAFE?AFEMTP
  +--> ?PR?INITAFE?AFEMTP

?PR?CURRPROCESS?AFEPROCESS                 -----    -----      -----    -----      -----    -----      0204H    0005H
  +--> ?PR?_TWIREADAFE?AFEMTP
  +--> ?PR?CURRPROTECT?AFEPROCESS

?PR?CURRPROTECT?AFEPROCESS                 -----    -----      -----    -----      -----    -----      -----    -----
  +--> ?PR?_TWIWRITEAFE?AFEMTP

?PR?BALPROCESS?BALANCE                     -----    -----      -----    -----      -----    -----      0204H    0002H
  +--> ?PR?_OPENBAL?BALANCE
  +--> ?PR?CHECKCTOVOL?BALANCE
  +--> ?PR?CLOSEBAL?BALANCE

?PR?_OPENBAL?BALANCE                       -----    -----      -----    -----      -----    -----      0206H    0002H
  +--> ?PR?_TWIWRITEAFE?AFEMTP

?PR?CHECKCTOVOL?BALANCE                    002BH.6  0000H.1    -----    -----      -----    -----      -----    -----

?PR?CLOSEBAL?BALANCE                       -----    -----      -----    -----      -----    -----      -----    -----
BL51 BANKED LINKER/LOCATER V6.22                                                      12/10/2019  11:35:57  PAGE 12


  +--> ?PR?_TWIWRITEAFE?AFEMTP

?PR?CALIPROCESS?CALIBRATE                  002BH.6  0000H.1    -----    -----      -----    -----      -----    -----
  +--> ?PR?CALIVOLTAGESUB?CALIBRATE
  +--> ?PR?CALITS1SUB?CALIBRATE
  +--> ?PR?CALITS2SUB?CALIBRATE
  +--> ?PR?CALICURRENTSUB?CALIBRATE
  +--> ?PR?CALICUROFFSETSUB?CALIBRATE
  +--> ?PR?CALIRTCTIME?CALIBRATE

?PR?CALIVOLTAGESUB?CALIBRATE               002BH.7  0000H.1    -----    -----      -----    -----      0204H    0003H
  +--> ?PR?_TWIREADAFE?AFEMTP

?PR?CALITS1SUB?CALIBRATE                   002BH.7  0000H.1    -----    -----      -----    -----      -----    -----
  +--> ?PR?_TWIREADAFE?AFEMTP
  +--> ?PR?_CALCUTEMP?CALCULATE

?PR?CALITS2SUB?CALIBRATE                   002BH.7  0000H.1    -----    -----      -----    -----      -----    -----
  +--> ?PR?_TWIREADAFE?AFEMTP
  +--> ?PR?_CALCUTEMP?CALCULATE

?PR?CALICURRENTSUB?CALIBRATE               002BH.7  0000H.1    -----    -----      -----    -----      0204H    0004H
  +--> ?PR?_TWIREADAFE?AFEMTP
  +--> ?PR?_DELAY1MS?COMMON

?PR?CALICUROFFSETSUB?CALIBRATE             002BH.7  0000H.1    -----    -----      -----    -----      0204H    0004H
  +--> ?PR?_TWIREADAFE?AFEMTP
  +--> ?PR?_DELAY1MS?COMMON

?PR?CALIRTCTIME?CALIBRATE                  002BH.7  0000H.1    -----    -----      -----    -----      -----    -----
  +--> ?PR?RTCMODIFYTIME?RTC

?PR?RTCMODIFYTIME?RTC                      002CH.0  0000H.1    -----    -----      -----    -----      0204H    0008H
  +--> ?PR?_RTCWRITE?RTC

?PR?FLASHPROCESS?MCUFLASH                  002BH.6  0000H.2    -----    -----      -----    -----      -----    -----
  +--> ?PR?_WRITEMCUFLASH?MCUFLASH
  +--> ?PR?_FLASH_WIRTE_ONE_BYTE?MCUFLASH

?PR?E2PROMBKPROCESS?EXTE2PROM              -----    -----      -----    -----      -----    -----      0204H    0001H
  +--> ?PR?INITE2PROM?EXTE2PROM
  +--> ?PR?INITRTC?RTC
  +--> ?PR?E2PROMERASE?EXTE2PROM
  +--> ?PR?UARTRDE2PROM?EXTE2PROM
  +--> ?PR?UARTRDRTC?EXTE2PROM
  +--> ?PR?E2PROMBKRTC?EXTE2PROM
  +--> ?PR?_E2PROMBKDATA?EXTE2PROM

?PR?E2PROMERASE?EXTE2PROM                  -----    -----      -----    -----      -----    -----      0205H    000AH
  +--> ?PR?_MEMORYSET?COMMON
  +--> ?PR?_E2PROMWRITE?EXTE2PROM

?PR?_E2PROMWRITE?EXTE2PROM                 -----    -----      -----    -----      -----    -----      022EH    0006H
  +--> ?PR?_TWIWRITE?TWIMODULE
  +--> ?PR?_DELAY1MS?COMMON

?PR?UARTRDE2PROM?EXTE2PROM                 -----    -----      -----    -----      -----    -----      -----    -----
BL51 BANKED LINKER/LOCATER V6.22                                                      12/10/2019  11:35:57  PAGE 13


  +--> ?PR?_E2PROMREAD?EXTE2PROM
  +--> ?PR?_CRC8CAL?TWIMODULE

?PR?UARTRDRTC?EXTE2PROM                    -----    -----      -----    -----      -----    -----      -----    -----
  +--> ?PR?RTCREADTIME?RTC
  +--> ?PR?_MEMORYCOPY?COMMON
  +--> ?PR?_CRC8CAL?TWIMODULE

?PR?E2PROMBKRTC?EXTE2PROM                  -----    -----      -----    -----      -----    -----      0205H    000AH
  +--> ?PR?RTCREADTIME?RTC
  +--> ?PR?_MEMORYCOPY?COMMON
  +--> ?PR?_E2PROMWRITE?EXTE2PROM

?PR?_E2PROMBKDATA?EXTE2PROM                -----    -----      -----    -----      -----    -----      0205H    0021H
  +--> ?PR?_MEMORYCOPY?COMMON
  +--> ?PR?RTCREADTIME?RTC
  +--> ?PR?_E2PROMWRITE?EXTE2PROM
  +--> ?PR?E2PROMBKBOOT?EXTE2PROM

?PR?E2PROMBKBOOT?EXTE2PROM                 -----    -----      -----    -----      -----    -----      0226H    0008H
  +--> ?PR?_E2PROMWRITE?EXTE2PROM

?PR?PROTECTPROCESS?AFEPROCESS              -----    -----      -----    -----      -----    -----      -----    -----
  +--> ?PR?VOLPROTECT?AFEPROCESS
  +--> ?PR?TEMPEPROTECT?AFEPROCESS
  +--> ?PR?CHKMOSSTATUS?AFEPROCESS
  +--> ?PR?CONTROLMOS?AFEPROCESS
  +--> ?PR?RECOVERYOC?AFEPROCESS
  +--> ?PR?CHECKLOAD?AFEPROCESS
  +--> ?PR?CHECKCHARGER?AFEPROCESS

?PR?VOLPROTECT?AFEPROCESS                  -----    -----      -----    -----      -----    -----      -----    -----
  +--> ?PR?_TWIWRITEAFE?AFEMTP

?PR?RECOVERYOC?AFEPROCESS                  -----    -----      -----    -----      -----    -----      -----    -----
  +--> ?PR?_TWIWRITEAFE?AFEMTP

?PR?CHECKLOAD?AFEPROCESS                   -----    -----      -----    -----      -----    -----      -----    -----
  +--> ?PR?_TWIWRITEAFE?AFEMTP
  +--> ?PR?_TWIREADAFE?AFEMTP

?PR?CHECKCHARGER?AFEPROCESS                -----    -----      -----    -----      -----    -----      -----    -----
  +--> ?PR?_TWIREADAFE?AFEMTP
  +--> ?PR?_TWIWRITEAFE?AFEMTP

?PR?RAMCHECKPROCESS?COMMON                 -----    -----      -----    -----      -----    -----      -----    -----
  +--> ?PR?INITSYSPARA?INITIAL

?PR?GAUGEMANAGE?GASGAUGE                   -----    -----      -----    -----      -----    -----      0204H    0002H

?PR?AFERAMCHECK?AFEPROCESS                 -----    -----      -----    -----      -----    -----      0204H    0003H
  +--> ?PR?_TWIREADAFE?AFEMTP
  +--> ?PR?INITAFE?AFEMTP

?PR?E2PROMBKCHECK?EXTE2PROM                -----    -----      -----    -----      -----    -----      -----    -----
  +--> ?PR?INITE2PROM?EXTE2PROM
  +--> ?PR?INITRTC?RTC
BL51 BANKED LINKER/LOCATER V6.22                                                      12/10/2019  11:35:57  PAGE 14


  +--> ?PR?RTCREADTIME?RTC
  +--> ?PR?_MEMORYCOPY?COMMON

?PR?LOWPOWERPROCESS?SHUTDOWN               -----    -----      -----    -----      -----    -----      -----    -----
  +--> ?PR?INTOIDLE?COMMON
  +--> ?PR?SYSTEMINTOPD?SHUTDOWN
  +--> ?PR?SYSTEMINTOIDLE?SHUTDOWN

?PR?SYSTEMINTOIDLE?SHUTDOWN                -----    -----      -----    -----      -----    -----      -----    -----
  +--> ?PR?_TWIWRITEAFE?AFEMTP
  +--> ?PR?_DELAY1MS?COMMON
  +--> ?PR?INTOPD?COMMON



SYMBOL TABLE OF MODULE:  .\output\MCUCore (MAIN)

  VALUE           TYPE          NAME
  ----------------------------------

  -------         MODULE        MAIN
  C:0000H         SYMBOL        _ICE_DUMMY_
  D:0080H         PUBLIC        P0
  D:0090H         PUBLIC        P1
  D:00A0H         PUBLIC        P2
  D:00B0H         PUBLIC        P3
  D:00C0H         PUBLIC        P4
  D:0080H         PUBLIC        P5
  B:00A8H.7       PUBLIC        EA
  C:2B08H         PUBLIC        main
  D:00B1H         PUBLIC        RSTSTAT
  -------         PROC          MAIN
  C:2B08H         LINE#         12
  C:2B08H         LINE#         13
  C:2B08H         LINE#         14
  C:2B0BH         LINE#         16
  C:2B0BH         LINE#         17
  C:2B0BH         LINE#         18
  C:2B0EH         LINE#         20
  C:2B18H         LINE#         21
  C:2B18H         LINE#         22
  C:2B1AH         LINE#         23
  C:2B1DH         LINE#         24
  C:2B1DH         LINE#         26
  C:2B23H         LINE#         27
  C:2B23H         LINE#         28
  C:2B25H         LINE#         29
  C:2B35H         LINE#         30
  C:2B38H         LINE#         31
  C:2B38H         LINE#         33
  C:2B3BH         LINE#         34
  C:2B3BH         LINE#         35
  C:2B3DH         LINE#         36
  C:2B40H         LINE#         37
  C:2B40H         LINE#         39
  C:2B43H         LINE#         40
  C:2B43H         LINE#         41
BL51 BANKED LINKER/LOCATER V6.22                                                      12/10/2019  11:35:57  PAGE 15


  C:2B45H         LINE#         42
  C:2B48H         LINE#         43
  C:2B48H         LINE#         45
  C:2B4BH         LINE#         46
  C:2B4BH         LINE#         47
  C:2B4DH         LINE#         48
  C:2B50H         LINE#         49
  C:2B50H         LINE#         51
  C:2B53H         LINE#         52
  C:2B53H         LINE#         53
  C:2B55H         LINE#         54
  C:2B58H         LINE#         55
  C:2B58H         LINE#         57
  C:2B5BH         LINE#         58
  C:2B5BH         LINE#         59
  C:2B5DH         LINE#         60
  C:2B60H         LINE#         62
  C:2B63H         LINE#         64
  C:2B66H         LINE#         66
  C:2B69H         LINE#         67
  C:2B69H         LINE#         69
  C:2B6CH         LINE#         70
  C:2B6CH         LINE#         71
  C:2B6EH         LINE#         72
  C:2B71H         LINE#         73
  C:2B71H         LINE#         75
  C:2B74H         LINE#         76
  C:2B74H         LINE#         77
  C:2B76H         LINE#         78
  C:2B79H         LINE#         79
  C:2B79H         LINE#         81
  C:2B7FH         LINE#         82
  C:2B7FH         LINE#         83
  C:2B81H         LINE#         84
  C:2B84H         LINE#         85
  C:2B84H         LINE#         87
  C:2B87H         LINE#         88
  C:2B87H         LINE#         89
  C:2B89H         LINE#         90
  C:2B8CH         LINE#         91
  C:2B8CH         LINE#         93
  C:2B8FH         LINE#         94
  C:2B8FH         LINE#         95
  C:2B91H         LINE#         97
  C:2B94H         LINE#         99
  C:2B97H         LINE#         101
  C:2B9AH         LINE#         103
  C:2B9DH         LINE#         105
  C:2BA0H         LINE#         107
  C:2BA3H         LINE#         109
  C:2BA6H         LINE#         110
  C:2BA6H         LINE#         111
  C:2BA9H         LINE#         112
  C:2BA9H         LINE#         114
  C:2BACH         LINE#         116
  C:2BACH         LINE#         118
  C:2BAFH         LINE#         119
BL51 BANKED LINKER/LOCATER V6.22                                                      12/10/2019  11:35:57  PAGE 16


  -------         ENDPROC       MAIN
  -------         ENDMOD        MAIN

  -------         MODULE        INITIAL
  C:0000H         SYMBOL        _ICE_DUMMY_
  D:0080H         PUBLIC        P0
  D:0090H         PUBLIC        P1
  D:00A0H         PUBLIC        P2
  D:00B0H         PUBLIC        P3
  C:4604H         PUBLIC        InitIRQ
  D:00C0H         PUBLIC        P4
  D:0080H         PUBLIC        P5
  B:00A8H.7       PUBLIC        EA
  D:00B7H         PUBLIC        PWM2CON
  C:3374H         PUBLIC        InitPWM
  D:00A8H         PUBLIC        IEN0
  D:00A9H         PUBLIC        IEN1
  B:0080H.0       PUBLIC        P0_0
  D:00B4H         PUBLIC        IPH0
  D:00B5H         PUBLIC        IPH1
  D:00E8H         PUBLIC        EXF0
  D:00E1H         PUBLIC        P0CR
  D:00B8H         PUBLIC        IPL0
  D:00E2H         PUBLIC        P1CR
  D:00B9H         PUBLIC        IPL1
  D:00E3H         PUBLIC        P2CR
  D:00E4H         PUBLIC        P3CR
  C:472DH         PUBLIC        InitTimer
  D:00BAH         PUBLIC        IENC
  C:40EBH         PUBLIC        PartialInitial
  C:01F0H         PUBLIC        InitSealCalibrate
  C:4751H         PUBLIC        InitClk
  D:00BFH         PUBLIC        PWM2DH
  D:0088H         PUBLIC        TCON
  D:00BEH         PUBLIC        PWM2DL
  D:00B1H         PUBLIC        RSTSTAT
  D:00B2H         PUBLIC        CLKCON
  D:00BDH         PUBLIC        PWM2PH
  C:2495H         PUBLIC        InitVar
  D:00BCH         PUBLIC        PWM2PL
  C:45DEH         PUBLIC        InitGPIO
  D:0086H         PUBLIC        INSCON
  C:43D8H         PUBLIC        Initial
  D:008DH         PUBLIC        TH3
  D:00A7H         PUBLIC        FLASHCON
  D:008CH         PUBLIC        TL3
  B:0088H.2       PUBLIC        TR3
  C:1675H         PUBLIC        InitSysPara
  D:00E9H         PUBLIC        P0PCR
  D:00EAH         PUBLIC        P1PCR
  D:0088H         PUBLIC        T3CON
  D:00EBH         PUBLIC        P2PCR
  C:4013H         PUBLIC        AllInitial
  D:00ECH         PUBLIC        P3PCR
  -------         PROC          INITSEALCALIBRATE
  C:01F0H         LINE#         24
  C:01F0H         LINE#         25
BL51 BANKED LINKER/LOCATER V6.22                                                      12/10/2019  11:35:57  PAGE 17


  C:01F0H         LINE#         26
  C:01F7H         LINE#         27
  C:01F7H         LINE#         28
  C:01F9H         LINE#         29
  C:01FAH         LINE#         31
  C:01FAH         LINE#         32
  C:01FCH         LINE#         33
  C:01FCH         LINE#         34
  -------         ENDPROC       INITSEALCALIBRATE
  -------         PROC          INITVAR
  C:2495H         LINE#         45
  C:2495H         LINE#         46
  C:2495H         LINE#         47
  C:2497H         LINE#         48
  C:2499H         LINE#         49
  C:249BH         LINE#         50
  C:249DH         LINE#         51
  C:249FH         LINE#         52
  C:24A1H         LINE#         53
  C:24A3H         LINE#         55
  C:24A5H         LINE#         56
  C:24A7H         LINE#         57
  C:24A9H         LINE#         58
  C:24ABH         LINE#         59
  C:24ADH         LINE#         60
  C:24AFH         LINE#         62
  C:24B2H         LINE#         64
  C:24B4H         LINE#         65
  C:24B6H         LINE#         66
  C:24B8H         LINE#         67
  C:24BAH         LINE#         68
  C:24BCH         LINE#         69
  C:24BEH         LINE#         71
  C:24C2H         LINE#         72
  C:24C6H         LINE#         73
  C:24CAH         LINE#         74
  C:24CCH         LINE#         75
  C:24CEH         LINE#         76
  C:24D0H         LINE#         77
  C:24D4H         LINE#         78
  C:24D8H         LINE#         79
  C:24DAH         LINE#         80
  C:24DEH         LINE#         81
  C:24E8H         LINE#         82
  C:24ECH         LINE#         83
  C:24F0H         LINE#         84
  C:24F4H         LINE#         85
  C:24F8H         LINE#         87
  C:24FCH         LINE#         88
  C:2500H         LINE#         89
  C:2504H         LINE#         90
  C:2508H         LINE#         91
  C:250CH         LINE#         92
  C:2510H         LINE#         93
  C:2514H         LINE#         94
  C:2518H         LINE#         95
  C:251CH         LINE#         96
BL51 BANKED LINKER/LOCATER V6.22                                                      12/10/2019  11:35:57  PAGE 18


  C:2520H         LINE#         97
  C:2524H         LINE#         98
  C:2528H         LINE#         99
  C:252CH         LINE#         100
  C:2530H         LINE#         102
  C:2532H         LINE#         103
  C:2534H         LINE#         104
  C:2536H         LINE#         105
  C:2538H         LINE#         106
  C:253BH         LINE#         107
  C:253FH         LINE#         108
  C:2542H         LINE#         110
  C:2546H         LINE#         111
  C:2550H         LINE#         113
  C:2552H         LINE#         115
  C:2557H         LINE#         116
  C:255DH         LINE#         117
  C:2561H         LINE#         118
  C:2563H         LINE#         119
  C:2565H         LINE#         120
  C:256BH         LINE#         122
  C:2576H         LINE#         123
  C:2580H         LINE#         124
  C:258AH         LINE#         125
  C:2592H         LINE#         126
  -------         ENDPROC       INITVAR
  -------         PROC          INITSYSPARA
  -------         DO            
  X:0204H         SYMBOL        i
  -------         ENDDO         
  C:1675H         LINE#         136
  C:1675H         LINE#         137
  C:1675H         LINE#         141
  C:1683H         LINE#         142
  C:1683H         LINE#         143
  C:1692H         LINE#         144
  C:1692H         LINE#         145
  C:1692H         LINE#         146
  C:1692H         LINE#         147
  C:1695H         LINE#         148
  C:1698H         LINE#         149
  C:169AH         LINE#         150
  C:169AH         LINE#         152
  C:169AH         LINE#         153
  C:169DH         LINE#         154
  C:16ADH         LINE#         155
  C:16ADH         LINE#         156
  C:16B7H         LINE#         157
  C:16BEH         LINE#         158
  C:16BEH         LINE#         159
  C:16C8H         LINE#         160
  C:16CDH         LINE#         161
  C:16CDH         LINE#         162
  C:16CDH         LINE#         163
  C:16D0H         LINE#         164
  C:16D0H         LINE#         165
  C:16D2H         LINE#         167
BL51 BANKED LINKER/LOCATER V6.22                                                      12/10/2019  11:35:57  PAGE 19


  C:16D2H         LINE#         168
  C:16D5H         LINE#         169
  C:16E5H         LINE#         170
  C:16E5H         LINE#         171
  C:16EFH         LINE#         172
  C:16F7H         LINE#         173
  C:16F7H         LINE#         174
  C:1701H         LINE#         175
  C:1707H         LINE#         176
  C:1707H         LINE#         177
  C:1707H         LINE#         178
  C:170AH         LINE#         179
  C:170AH         LINE#         181
  C:170FH         LINE#         184
  C:1738H         LINE#         187
  C:1742H         LINE#         188
  C:174CH         LINE#         189
  C:1760H         LINE#         190
  C:176FH         LINE#         191
  C:1779H         LINE#         192
  C:1781H         LINE#         193
  C:178BH         LINE#         195
  C:178EH         LINE#         196
  C:178EH         LINE#         197
  C:1795H         LINE#         198
  C:17A7H         LINE#         199
  C:17A7H         LINE#         201
  C:17AAH         LINE#         202
  C:17AAH         LINE#         203
  C:17B1H         LINE#         204
  C:17C3H         LINE#         205
  C:17E2H         LINE#         206
  C:17FAH         LINE#         207
  C:1808H         LINE#         208
  C:1808H         LINE#         211
  C:1810H         LINE#         212
  C:1819H         LINE#         213
  C:1819H         LINE#         214
  C:181CH         LINE#         215
  C:181DH         LINE#         216
  C:1828H         LINE#         217
  C:1828H         LINE#         218
  C:182BH         LINE#         219
  C:182CH         LINE#         221
  C:182CH         LINE#         222
  C:182FH         LINE#         223
  C:182FH         LINE#         224
  -------         ENDPROC       INITSYSPARA
  -------         PROC          INITIRQ
  C:4604H         LINE#         234
  C:4604H         LINE#         235
  C:4604H         LINE#         236
  C:4606H         LINE#         238
  C:4609H         LINE#         239
  C:460CH         LINE#         240
  C:460FH         LINE#         241
  C:4612H         LINE#         242
BL51 BANKED LINKER/LOCATER V6.22                                                      12/10/2019  11:35:57  PAGE 20


  C:4615H         LINE#         244
  C:4618H         LINE#         246
  C:461BH         LINE#         247
  C:461EH         LINE#         248
  C:4621H         LINE#         249
  C:4623H         LINE#         251
  C:4625H         LINE#         252
  -------         ENDPROC       INITIRQ
  -------         PROC          INITTIMER
  C:472DH         LINE#         262
  C:472DH         LINE#         263
  C:472DH         LINE#         264
  C:4730H         LINE#         265
  C:4733H         LINE#         266
  C:4736H         LINE#         267
  C:4739H         LINE#         268
  C:473BH         LINE#         269
  C:473EH         LINE#         270
  -------         ENDPROC       INITTIMER
  -------         PROC          INITGPIO
  C:45DEH         LINE#         299
  C:45DEH         LINE#         300
  C:45DEH         LINE#         301
  C:45E1H         LINE#         302
  C:45E3H         LINE#         303
  C:45E6H         LINE#         305
  C:45E9H         LINE#         306
  C:45ECH         LINE#         307
  C:45EFH         LINE#         309
  C:45F2H         LINE#         310
  C:45F5H         LINE#         311
  C:45F8H         LINE#         313
  C:45FBH         LINE#         314
  C:45FEH         LINE#         315
  C:4601H         LINE#         317
  C:4603H         LINE#         318
  -------         ENDPROC       INITGPIO
  -------         PROC          INITCLK
  C:4751H         LINE#         328
  C:4751H         LINE#         329
  C:4751H         LINE#         330
  C:4754H         LINE#         331
  C:4755H         LINE#         332
  C:4756H         LINE#         333
  C:4757H         LINE#         334
  C:4758H         LINE#         335
  C:4759H         LINE#         336
  C:475AH         LINE#         337
  C:475BH         LINE#         338
  C:475CH         LINE#         339
  C:475FH         LINE#         340
  -------         ENDPROC       INITCLK
  -------         PROC          INITPWM
  C:3374H         LINE#         350
  C:3374H         LINE#         351
  C:3374H         LINE#         352
  C:3377H         LINE#         353
BL51 BANKED LINKER/LOCATER V6.22                                                      12/10/2019  11:35:57  PAGE 21


  C:3391H         LINE#         354
  C:33B0H         LINE#         355
  C:33CEH         LINE#         356
  C:33E9H         LINE#         357
  C:33EBH         LINE#         358
  C:33EDH         LINE#         359
  C:33F3H         LINE#         360
  C:33F5H         LINE#         361
  -------         ENDPROC       INITPWM
  -------         PROC          PARTIALINITIAL
  C:40EBH         LINE#         371
  C:40EBH         LINE#         372
  C:40EBH         LINE#         373
  C:40EEH         LINE#         375
  C:40F1H         LINE#         377
  C:40F4H         LINE#         379
  C:40F7H         LINE#         381
  C:40FAH         LINE#         383
  C:40FDH         LINE#         385
  C:4100H         LINE#         387
  C:4105H         LINE#         388
  C:4105H         LINE#         389
  C:4108H         LINE#         391
  C:410DH         LINE#         392
  C:410DH         LINE#         393
  C:4110H         LINE#         395
  C:4113H         LINE#         397
  C:4116H         LINE#         399
  C:4119H         LINE#         400
  C:411BH         LINE#         402
  C:411BH         LINE#         403
  C:411EH         LINE#         404
  C:411EH         LINE#         405
  C:4120H         LINE#         407
  C:4120H         LINE#         408
  C:4123H         LINE#         409
  C:4123H         LINE#         411
  C:4126H         LINE#         413
  C:4129H         LINE#         414
  C:4129H         LINE#         415
  C:412CH         LINE#         416
  C:412FH         LINE#         417
  C:412FH         LINE#         419
  -------         ENDPROC       PARTIALINITIAL
  -------         PROC          ALLINITIAL
  C:4013H         LINE#         429
  C:4013H         LINE#         430
  C:4013H         LINE#         431
  C:4016H         LINE#         433
  C:4019H         LINE#         435
  C:401CH         LINE#         437
  C:401FH         LINE#         439
  C:4022H         LINE#         441
  C:4025H         LINE#         443
  C:4028H         LINE#         445
  C:402BH         LINE#         447
  C:4030H         LINE#         448
BL51 BANKED LINKER/LOCATER V6.22                                                      12/10/2019  11:35:57  PAGE 22


  C:4030H         LINE#         449
  C:4033H         LINE#         451
  C:4038H         LINE#         452
  C:4038H         LINE#         453
  C:403BH         LINE#         455
  C:403EH         LINE#         457
  C:4041H         LINE#         459
  C:4044H         LINE#         460
  C:4046H         LINE#         462
  C:4046H         LINE#         463
  C:4049H         LINE#         464
  C:4049H         LINE#         465
  C:404BH         LINE#         467
  C:404BH         LINE#         468
  C:404EH         LINE#         469
  C:404EH         LINE#         471
  C:4051H         LINE#         473
  C:4054H         LINE#         474
  C:4054H         LINE#         475
  C:4057H         LINE#         476
  C:405AH         LINE#         477
  C:405AH         LINE#         479
  -------         ENDPROC       ALLINITIAL
  -------         PROC          INITIAL
  C:43D8H         LINE#         489
  C:43D8H         LINE#         490
  C:43D8H         LINE#         491
  C:43DBH         LINE#         492
  C:43EAH         LINE#         493
  C:43EAH         LINE#         494
  C:43EDH         LINE#         495
  C:43EDH         LINE#         497
  C:43FAH         LINE#         498
  C:43FAH         LINE#         499
  C:43FDH         LINE#         500
  C:4401H         LINE#         502
  C:4404H         LINE#         503
  C:4405H         LINE#         505
  C:4405H         LINE#         506
  C:4408H         LINE#         507
  C:440BH         LINE#         508
  C:440BH         LINE#         509
  -------         ENDPROC       INITIAL
  -------         ENDMOD        INITIAL

  -------         MODULE        INTERRUPT
  C:0000H         SYMBOL        _ICE_DUMMY_
  D:0080H         PUBLIC        P0
  D:0090H         PUBLIC        P1
  D:00A0H         PUBLIC        P2
  D:00B0H         PUBLIC        P3
  D:00C0H         PUBLIC        P4
  D:0080H         PUBLIC        P5
  C:2E4FH         PUBLIC        InterruptTimer3
  B:00A0H.0       PUBLIC        P2_0
  B:00B0H.5       PUBLIC        P3_5
  D:0086H         PUBLIC        INSCON
BL51 BANKED LINKER/LOCATER V6.22                                                      12/10/2019  11:35:57  PAGE 23


  B:0088H.7       PUBLIC        TF3
  D:008DH         PUBLIC        TH3
  D:008CH         PUBLIC        TL3
  B:0098H.4       PUBLIC        REN
  C:3EA5H         PUBLIC        InterruptINT0
  C:3C39H         PUBLIC        InterruptINT4
  B:00D8H.5       PUBLIC        IF45
  -------         PROC          INTERRUPTINT4
  C:3C39H         LINE#         18
  C:3C56H         LINE#         20
  C:3C58H         LINE#         21
  C:3C5BH         LINE#         23
  C:3C5EH         LINE#         24
  C:3C5EH         LINE#         25
  C:3C60H         LINE#         26
  C:3C66H         LINE#         27
  C:3C66H         LINE#         28
  C:3C69H         LINE#         29
  C:3C6BH         LINE#         30
  C:3C6BH         LINE#         31
  C:3C6DH         LINE#         32
  C:3C6DH         LINE#         34
  C:3C6FH         LINE#         35
  -------         ENDPROC       INTERRUPTINT4
  -------         PROC          INTERRUPTINT0
  C:3EA5H         LINE#         45
  C:3EC2H         LINE#         47
  C:3EC4H         LINE#         48
  C:3EC7H         LINE#         50
  C:3ECDH         LINE#         51
  C:3ECDH         LINE#         52
  C:3ED0H         LINE#         54
  C:3ED2H         LINE#         55
  C:3ED2H         LINE#         57
  C:3ED4H         LINE#         58
  -------         ENDPROC       INTERRUPTINT0
  -------         PROC          INTERRUPTTIMER3
  C:2E4FH         LINE#         68
  C:2E6CH         LINE#         70
  C:2E6EH         LINE#         72
  C:2E71H         LINE#         73
  C:2E74H         LINE#         74
  C:2E77H         LINE#         75
  C:2E79H         LINE#         76
  C:2E7CH         LINE#         78
  C:2E7EH         LINE#         80
  C:2E81H         LINE#         81
  C:2E81H         LINE#         82
  C:2E8CH         LINE#         83
  C:2E8CH         LINE#         84
  C:2E8EH         LINE#         85
  C:2E93H         LINE#         86
  C:2E93H         LINE#         87
  C:2E95H         LINE#         89
  C:2E95H         LINE#         90
  C:2E97H         LINE#         91
  C:2E97H         LINE#         93
BL51 BANKED LINKER/LOCATER V6.22                                                      12/10/2019  11:35:57  PAGE 24


  C:2E9AH         LINE#         94
  C:2E9AH         LINE#         95
  C:2EA5H         LINE#         96
  C:2EA5H         LINE#         97
  C:2EA7H         LINE#         98
  C:2EACH         LINE#         99
  C:2EACH         LINE#         100
  C:2EAEH         LINE#         102
  C:2EAEH         LINE#         103
  C:2EB0H         LINE#         104
  C:2EB0H         LINE#         106
  C:2EB9H         LINE#         107
  C:2EB9H         LINE#         108
  C:2EBCH         LINE#         109
  C:2EBEH         LINE#         110
  C:2EBEH         LINE#         112
  C:2EC9H         LINE#         113
  C:2EC9H         LINE#         114
  C:2ECBH         LINE#         115
  C:2ED0H         LINE#         116
  C:2ED0H         LINE#         118
  C:2ED3H         LINE#         120
  C:2ED5H         LINE#         121
  -------         ENDPROC       INTERRUPTTIMER3
  -------         ENDMOD        INTERRUPT

  -------         MODULE        AFEPROCESS
  C:0000H         SYMBOL        _ICE_DUMMY_
  D:0080H         PUBLIC        P0
  D:0090H         PUBLIC        P1
  D:00A0H         PUBLIC        P2
  C:12C5H         PUBLIC        CurrProcess
  D:00B0H         PUBLIC        P3
  D:00C0H         PUBLIC        P4
  C:28ECH         PUBLIC        CurrProtect
  D:0080H         PUBLIC        P5
  D:00B7H         PUBLIC        PWM2CON
  D:00A8H         PUBLIC        IEN0
  C:41FEH         PUBLIC        ControlMos
  C:2291H         PUBLIC        VolProcess
  B:00A0H.5       PUBLIC        P2_5
  C:19A0H         PUBLIC        VolProtect
  C:31D9H         PUBLIC        CheckCharger
  C:3DC4H         PUBLIC        WaitADCConvert
  C:4669H         PUBLIC        IntoPowerDown
  C:4534H         PUBLIC        ProtectProcess
  C:39E0H         PUBLIC        AFERamCheck
  C:379CH         PUBLIC        ChkMosStatus
  C:405BH         PUBLIC        AlarmProcess
  C:3023H         PUBLIC        PorOnProtect
  C:29A8H         PUBLIC        CheckLoad
  C:097EH         PUBLIC        TempeProtect
  C:314AH         PUBLIC        RecoveryOC
  -------         PROC          VOLPROTECT
  C:19A0H         LINE#         19
  C:19A0H         LINE#         20
  C:19A0H         LINE#         21
BL51 BANKED LINKER/LOCATER V6.22                                                      12/10/2019  11:35:57  PAGE 25


  C:19A3H         LINE#         22
  C:19A3H         LINE#         23
  C:19B2H         LINE#         24
  C:19B2H         LINE#         25
  C:19CEH         LINE#         26
  C:19CEH         LINE#         27
  C:19D0H         LINE#         28
  C:19D2H         LINE#         29
  C:19D6H         LINE#         30
  C:19D6H         LINE#         31
  C:19D8H         LINE#         32
  C:19E7H         LINE#         33
  C:19E7H         LINE#         34
  C:19F0H         LINE#         35
  C:19F0H         LINE#         36
  C:19F3H         LINE#         37
  C:19F3H         LINE#         38
  C:19F3H         LINE#         39
  C:19F5H         LINE#         41
  C:19F5H         LINE#         42
  C:1A04H         LINE#         43
  C:1A04H         LINE#         44
  C:1A20H         LINE#         45
  C:1A20H         LINE#         46
  C:1A22H         LINE#         47
  C:1A27H         LINE#         48
  C:1A2BH         LINE#         49
  C:1A2BH         LINE#         50
  C:1A2DH         LINE#         51
  C:1A3CH         LINE#         52
  C:1A3CH         LINE#         53
  C:1A44H         LINE#         54
  C:1A44H         LINE#         55
  C:1A47H         LINE#         56
  C:1A47H         LINE#         57
  C:1A47H         LINE#         58
  C:1A47H         LINE#         60
  C:1A4AH         LINE#         61
  C:1A4AH         LINE#         62
  C:1A59H         LINE#         63
  C:1A59H         LINE#         64
  C:1A78H         LINE#         65
  C:1A78H         LINE#         66
  C:1A7AH         LINE#         67
  C:1A7CH         LINE#         68
  C:1A80H         LINE#         70
  C:1A82H         LINE#         71
  C:1A84H         LINE#         72
  C:1A88H         LINE#         73
  C:1A8FH         LINE#         74
  C:1A98H         LINE#         75
  C:1A98H         LINE#         76
  C:1A99H         LINE#         77
  C:1AA8H         LINE#         78
  C:1AA8H         LINE#         79
  C:1AB0H         LINE#         80
  C:1AB0H         LINE#         81
BL51 BANKED LINKER/LOCATER V6.22                                                      12/10/2019  11:35:57  PAGE 26


  C:1AB3H         LINE#         82
  C:1AB3H         LINE#         83
  C:1AB3H         LINE#         84
  C:1AB4H         LINE#         86
  C:1AB4H         LINE#         87
  C:1AC3H         LINE#         88
  C:1AC3H         LINE#         89
  C:1ADFH         LINE#         90
  C:1ADFH         LINE#         91
  C:1AE1H         LINE#         92
  C:1AE6H         LINE#         93
  C:1AEAH         LINE#         94
  C:1AEAH         LINE#         95
  C:1AEBH         LINE#         96
  C:1AFAH         LINE#         97
  C:1AFAH         LINE#         98
  C:1B03H         LINE#         99
  C:1B03H         LINE#         100
  C:1B06H         LINE#         101
  C:1B06H         LINE#         102
  C:1B06H         LINE#         103
  C:1B06H         LINE#         104
  -------         ENDPROC       VOLPROTECT
  -------         PROC          TEMPEPROTECT
  C:097EH         LINE#         114
  C:097EH         LINE#         115
  C:097EH         LINE#         116
  C:0981H         LINE#         117
  C:0981H         LINE#         118
  C:0997H         LINE#         119
  C:0997H         LINE#         120
  C:09B6H         LINE#         121
  C:09B6H         LINE#         122
  C:09B8H         LINE#         123
  C:09BAH         LINE#         124
  C:09BEH         LINE#         125
  C:09BEH         LINE#         126
  C:09C0H         LINE#         127
  C:09CFH         LINE#         128
  C:09CFH         LINE#         129
  C:09D7H         LINE#         130
  C:09D7H         LINE#         131
  C:09DAH         LINE#         132
  C:09DAH         LINE#         133
  C:09DAH         LINE#         134
  C:09DCH         LINE#         136
  C:09DCH         LINE#         137
  C:09F2H         LINE#         138
  C:09F2H         LINE#         139
  C:0A0EH         LINE#         140
  C:0A0EH         LINE#         141
  C:0A10H         LINE#         142
  C:0A15H         LINE#         143
  C:0A19H         LINE#         144
  C:0A19H         LINE#         145
  C:0A1BH         LINE#         146
  C:0A2AH         LINE#         147
BL51 BANKED LINKER/LOCATER V6.22                                                      12/10/2019  11:35:57  PAGE 27


  C:0A2AH         LINE#         148
  C:0A33H         LINE#         149
  C:0A33H         LINE#         150
  C:0A36H         LINE#         151
  C:0A36H         LINE#         152
  C:0A36H         LINE#         153
  C:0A36H         LINE#         155
  C:0A39H         LINE#         156
  C:0A39H         LINE#         157
  C:0A4FH         LINE#         158
  C:0A4FH         LINE#         159
  C:0A6EH         LINE#         160
  C:0A6EH         LINE#         161
  C:0A70H         LINE#         162
  C:0A72H         LINE#         163
  C:0A76H         LINE#         164
  C:0A76H         LINE#         165
  C:0A78H         LINE#         166
  C:0A87H         LINE#         167
  C:0A87H         LINE#         168
  C:0A90H         LINE#         169
  C:0A90H         LINE#         170
  C:0A93H         LINE#         171
  C:0A93H         LINE#         172
  C:0A93H         LINE#         173
  C:0A95H         LINE#         175
  C:0A95H         LINE#         176
  C:0AABH         LINE#         177
  C:0AABH         LINE#         178
  C:0AC7H         LINE#         179
  C:0AC7H         LINE#         180
  C:0AC9H         LINE#         181
  C:0ACEH         LINE#         182
  C:0AD2H         LINE#         183
  C:0AD2H         LINE#         184
  C:0AD4H         LINE#         185
  C:0AE3H         LINE#         186
  C:0AE3H         LINE#         187
  C:0AEBH         LINE#         188
  C:0AEBH         LINE#         189
  C:0AEEH         LINE#         190
  C:0AEEH         LINE#         191
  C:0AEEH         LINE#         192
  C:0AEEH         LINE#         194
  C:0AF1H         LINE#         195
  C:0AF1H         LINE#         196
  C:0B07H         LINE#         197
  C:0B07H         LINE#         198
  C:0B26H         LINE#         199
  C:0B26H         LINE#         200
  C:0B28H         LINE#         201
  C:0B2AH         LINE#         202
  C:0B2EH         LINE#         203
  C:0B2EH         LINE#         204
  C:0B30H         LINE#         205
  C:0B3FH         LINE#         206
  C:0B3FH         LINE#         207
BL51 BANKED LINKER/LOCATER V6.22                                                      12/10/2019  11:35:57  PAGE 28


  C:0B47H         LINE#         208
  C:0B47H         LINE#         209
  C:0B4AH         LINE#         210
  C:0B4AH         LINE#         211
  C:0B4AH         LINE#         212
  C:0B4CH         LINE#         214
  C:0B4CH         LINE#         215
  C:0B62H         LINE#         216
  C:0B62H         LINE#         217
  C:0B7EH         LINE#         218
  C:0B7EH         LINE#         219
  C:0B80H         LINE#         220
  C:0B85H         LINE#         221
  C:0B89H         LINE#         222
  C:0B89H         LINE#         223
  C:0B8BH         LINE#         224
  C:0B9AH         LINE#         225
  C:0B9AH         LINE#         226
  C:0BA3H         LINE#         227
  C:0BA3H         LINE#         228
  C:0BA6H         LINE#         229
  C:0BA6H         LINE#         230
  C:0BA6H         LINE#         231
  C:0BA6H         LINE#         233
  C:0BA9H         LINE#         234
  C:0BA9H         LINE#         235
  C:0BBFH         LINE#         236
  C:0BBFH         LINE#         237
  C:0BDEH         LINE#         238
  C:0BDEH         LINE#         239
  C:0BE0H         LINE#         240
  C:0BE2H         LINE#         241
  C:0BE6H         LINE#         242
  C:0BE6H         LINE#         243
  C:0BE7H         LINE#         244
  C:0BF6H         LINE#         245
  C:0BF6H         LINE#         246
  C:0BFFH         LINE#         247
  C:0BFFH         LINE#         248
  C:0C02H         LINE#         249
  C:0C02H         LINE#         250
  C:0C02H         LINE#         251
  C:0C03H         LINE#         253
  C:0C03H         LINE#         254
  C:0C19H         LINE#         255
  C:0C19H         LINE#         256
  C:0C35H         LINE#         257
  C:0C35H         LINE#         258
  C:0C37H         LINE#         259
  C:0C3CH         LINE#         260
  C:0C40H         LINE#         261
  C:0C40H         LINE#         262
  C:0C41H         LINE#         263
  C:0C50H         LINE#         264
  C:0C50H         LINE#         265
  C:0C58H         LINE#         266
  C:0C58H         LINE#         267
BL51 BANKED LINKER/LOCATER V6.22                                                      12/10/2019  11:35:57  PAGE 29


  C:0C5BH         LINE#         268
  C:0C5BH         LINE#         269
  C:0C5BH         LINE#         270
  C:0C5BH         LINE#         271
  -------         ENDPROC       TEMPEPROTECT
  -------         PROC          CHKMOSSTATUS
  C:379CH         LINE#         281
  C:379CH         LINE#         282
  C:379CH         LINE#         283
  C:379EH         LINE#         284
  C:37A0H         LINE#         286
  C:37A6H         LINE#         287
  C:37A6H         LINE#         288
  C:37A8H         LINE#         289
  C:37A8H         LINE#         291
  C:37C3H         LINE#         292
  C:37C3H         LINE#         293
  C:37C5H         LINE#         294
  C:37C8H         LINE#         295
  C:37CAH         LINE#         296
  C:37CCH         LINE#         298
  C:37CCH         LINE#         299
  C:37CEH         LINE#         300
  C:37D6H         LINE#         301
  C:37D6H         LINE#         302
  C:37D9H         LINE#         303
  C:37D9H         LINE#         304
  C:37D9H         LINE#         306
  C:37DCH         LINE#         307
  C:37DCH         LINE#         308
  C:37EEH         LINE#         309
  C:37EEH         LINE#         310
  C:37F0H         LINE#         311
  C:37F0H         LINE#         312
  C:37F0H         LINE#         313
  C:37FCH         LINE#         314
  C:37FCH         LINE#         315
  C:37FEH         LINE#         316
  C:37FEH         LINE#         317
  -------         ENDPROC       CHKMOSSTATUS
  -------         PROC          CONTROLMOS
  C:41FEH         LINE#         327
  C:41FEH         LINE#         328
  C:41FEH         LINE#         329
  C:4201H         LINE#         330
  C:4201H         LINE#         331
  C:4208H         LINE#         332
  C:420AH         LINE#         334
  C:420AH         LINE#         335
  C:4211H         LINE#         336
  C:4211H         LINE#         338
  C:4214H         LINE#         339
  C:4214H         LINE#         340
  C:421BH         LINE#         341
  C:421DH         LINE#         343
  C:421DH         LINE#         344
  C:4224H         LINE#         345
BL51 BANKED LINKER/LOCATER V6.22                                                      12/10/2019  11:35:57  PAGE 30


  C:4224H         LINE#         347
  C:4231H         LINE#         348
  C:4231H         LINE#         349
  C:4236H         LINE#         350
  C:423FH         LINE#         351
  C:423FH         LINE#         352
  -------         ENDPROC       CONTROLMOS
  -------         PROC          RECOVERYOC
  C:314AH         LINE#         362
  C:314AH         LINE#         363
  C:314AH         LINE#         364
  C:3150H         LINE#         365
  C:3150H         LINE#         366
  C:3156H         LINE#         367
  C:3156H         LINE#         368
  C:3174H         LINE#         369
  C:3174H         LINE#         370
  C:3176H         LINE#         371
  C:317BH         LINE#         372
  C:3181H         LINE#         373
  C:3183H         LINE#         374
  C:3186H         LINE#         375
  C:3186H         LINE#         376
  C:3188H         LINE#         377
  C:318FH         LINE#         378
  C:3198H         LINE#         379
  C:319FH         LINE#         380
  C:31A8H         LINE#         381
  C:31A8H         LINE#         382
  C:31A8H         LINE#         383
  C:31A8H         LINE#         385
  C:31ABH         LINE#         386
  C:31ABH         LINE#         387
  C:31C9H         LINE#         388
  C:31C9H         LINE#         389
  C:31D0H         LINE#         390
  C:31D2H         LINE#         392
  C:31D4H         LINE#         393
  C:31D8H         LINE#         394
  C:31D8H         LINE#         395
  C:31D8H         LINE#         396
  C:31D8H         LINE#         397
  -------         ENDPROC       RECOVERYOC
  -------         PROC          CHECKLOAD
  C:29A8H         LINE#         407
  C:29A8H         LINE#         408
  C:29A8H         LINE#         409
  C:29ABH         LINE#         410
  C:29ABH         LINE#         411
  C:29AEH         LINE#         412
  C:29AEH         LINE#         413
  C:29B0H         LINE#         414
  C:29B2H         LINE#         415
  C:29B4H         LINE#         416
  C:29BAH         LINE#         417
  C:29BAH         LINE#         418
  C:29BCH         LINE#         419
BL51 BANKED LINKER/LOCATER V6.22                                                      12/10/2019  11:35:57  PAGE 31


  C:29BEH         LINE#         420
  C:29C3H         LINE#         421
  C:29CAH         LINE#         422
  C:29D3H         LINE#         423
  C:29D3H         LINE#         425
  C:29DCH         LINE#         426
  C:29DCH         LINE#         427
  C:29DEH         LINE#         428
  C:29E0H         LINE#         429
  C:29E5H         LINE#         430
  C:29ECH         LINE#         431
  C:29F5H         LINE#         432
  C:29F5H         LINE#         433
  C:29F6H         LINE#         435
  C:29F6H         LINE#         436
  C:29FFH         LINE#         437
  C:2A06H         LINE#         438
  C:2A06H         LINE#         439
  C:2A1AH         LINE#         440
  C:2A1AH         LINE#         441
  C:2A1CH         LINE#         442
  C:2A1EH         LINE#         443
  C:2A20H         LINE#         444
  C:2A22H         LINE#         445
  C:2A24H         LINE#         446
  C:2A2BH         LINE#         447
  C:2A34H         LINE#         448
  C:2A37H         LINE#         449
  C:2A37H         LINE#         450
  C:2A39H         LINE#         451
  C:2A40H         LINE#         452
  C:2A49H         LINE#         453
  C:2A50H         LINE#         454
  C:2A59H         LINE#         455
  C:2A59H         LINE#         456
  C:2A59H         LINE#         457
  C:2A59H         LINE#         458
  C:2A59H         LINE#         459
  -------         ENDPROC       CHECKLOAD
  -------         PROC          CHECKCHARGER
  C:31D9H         LINE#         469
  C:31D9H         LINE#         470
  C:31D9H         LINE#         471
  C:31DCH         LINE#         472
  C:31DCH         LINE#         473
  C:31E5H         LINE#         474
  C:31ECH         LINE#         475
  C:31ECH         LINE#         476
  C:3208H         LINE#         477
  C:3208H         LINE#         478
  C:320AH         LINE#         479
  C:320CH         LINE#         480
  C:320EH         LINE#         481
  C:3215H         LINE#         482
  C:321EH         LINE#         483
  C:321EH         LINE#         484
  C:321EH         LINE#         485
BL51 BANKED LINKER/LOCATER V6.22                                                      12/10/2019  11:35:57  PAGE 32


  C:321EH         LINE#         487
  C:3221H         LINE#         488
  C:3221H         LINE#         489
  C:322AH         LINE#         490
  C:3231H         LINE#         491
  C:3231H         LINE#         492
  C:324DH         LINE#         493
  C:324DH         LINE#         494
  C:324FH         LINE#         495
  C:3251H         LINE#         496
  C:3253H         LINE#         497
  C:325AH         LINE#         498
  C:3263H         LINE#         499
  C:3263H         LINE#         500
  C:3263H         LINE#         501
  C:3263H         LINE#         502
  -------         ENDPROC       CHECKCHARGER
  -------         PROC          VOLPROCESS
  C:2291H         LINE#         512
  C:2291H         LINE#         513
  C:2291H         LINE#         514
  C:2297H         LINE#         515
  C:2297H         LINE#         516
  C:229AH         LINE#         517
  C:229AH         LINE#         518
  C:22CBH         LINE#         519
  C:22CBH         LINE#         520
  C:22DAH         LINE#         521
  C:22DAH         LINE#         522
  C:22DCH         LINE#         523
  C:22DEH         LINE#         524
  C:22E2H         LINE#         525
  C:22E2H         LINE#         526
  C:22E4H         LINE#         528
  C:22E4H         LINE#         529
  C:22EDH         LINE#         530
  C:22EDH         LINE#         531
  C:22F0H         LINE#         532
  C:22F0H         LINE#         533
  C:22F0H         LINE#         534
  C:22F2H         LINE#         536
  C:22F2H         LINE#         537
  C:2301H         LINE#         538
  C:2301H         LINE#         539
  C:230FH         LINE#         540
  C:230FH         LINE#         541
  C:2311H         LINE#         542
  C:2316H         LINE#         543
  C:231AH         LINE#         544
  C:231AH         LINE#         545
  C:231CH         LINE#         547
  C:231CH         LINE#         548
  C:2325H         LINE#         549
  C:2325H         LINE#         550
  C:2328H         LINE#         551
  C:2328H         LINE#         552
  C:2328H         LINE#         553
BL51 BANKED LINKER/LOCATER V6.22                                                      12/10/2019  11:35:57  PAGE 33


  C:2328H         LINE#         555
  C:232BH         LINE#         556
  C:232BH         LINE#         557
  C:233AH         LINE#         558
  C:233AH         LINE#         559
  C:2348H         LINE#         560
  C:2348H         LINE#         561
  C:234AH         LINE#         562
  C:234CH         LINE#         563
  C:2350H         LINE#         564
  C:2350H         LINE#         565
  C:2351H         LINE#         567
  C:2351H         LINE#         568
  C:235AH         LINE#         569
  C:235AH         LINE#         570
  C:235DH         LINE#         571
  C:235DH         LINE#         572
  C:235DH         LINE#         573
  C:235EH         LINE#         575
  C:235EH         LINE#         576
  C:236DH         LINE#         577
  C:236DH         LINE#         578
  C:237CH         LINE#         579
  C:237CH         LINE#         580
  C:237EH         LINE#         581
  C:2383H         LINE#         582
  C:2387H         LINE#         583
  C:2387H         LINE#         584
  C:2388H         LINE#         586
  C:2388H         LINE#         587
  C:2391H         LINE#         588
  C:2391H         LINE#         589
  C:2394H         LINE#         590
  C:2394H         LINE#         591
  C:2394H         LINE#         592
  C:2394H         LINE#         593
  C:2394H         LINE#         594
  -------         ENDPROC       VOLPROCESS
  -------         PROC          CURRPROTECT
  C:28ECH         LINE#         604
  C:28ECH         LINE#         605
  C:28ECH         LINE#         606
  C:28EFH         LINE#         607
  C:28EFH         LINE#         608
  C:2911H         LINE#         609
  C:2911H         LINE#         610
  C:292DH         LINE#         611
  C:292DH         LINE#         612
  C:292FH         LINE#         613
  C:2931H         LINE#         615
  C:2933H         LINE#         616
  C:2937H         LINE#         617
  C:293EH         LINE#         618
  C:2947H         LINE#         619
  C:2947H         LINE#         620
  C:2949H         LINE#         622
  C:2949H         LINE#         623
BL51 BANKED LINKER/LOCATER V6.22                                                      12/10/2019  11:35:57  PAGE 34


  C:2952H         LINE#         624
  C:2952H         LINE#         625
  C:2955H         LINE#         626
  C:2955H         LINE#         627
  C:2955H         LINE#         628
  C:2955H         LINE#         630
  C:2958H         LINE#         631
  C:2958H         LINE#         632
  C:297AH         LINE#         633
  C:297AH         LINE#         634
  C:2996H         LINE#         635
  C:2996H         LINE#         636
  C:2998H         LINE#         637
  C:299AH         LINE#         638
  C:299AH         LINE#         639
  C:299BH         LINE#         641
  C:299BH         LINE#         642
  C:29A4H         LINE#         643
  C:29A4H         LINE#         644
  C:29A7H         LINE#         645
  C:29A7H         LINE#         646
  C:29A7H         LINE#         647
  C:29A7H         LINE#         648
  -------         ENDPROC       CURRPROTECT
  -------         PROC          CURRPROCESS
  -------         DO            
  X:0204H         SYMBOL        i
  X:0205H         SYMBOL        Tempdata
  -------         ENDDO         
  C:12C5H         LINE#         658
  C:12C5H         LINE#         659
  C:12C5H         LINE#         661
  C:12CFH         LINE#         663
  C:12D8H         LINE#         665
  C:12E4H         LINE#         666
  C:12E4H         LINE#         667
  C:12EDH         LINE#         668
  C:12EDH         LINE#         669
  C:1334H         LINE#         671
  C:1356H         LINE#         672
  C:1361H         LINE#         673
  C:1361H         LINE#         674
  C:1363H         LINE#         675
  C:1363H         LINE#         676
  C:1372H         LINE#         677
  C:1372H         LINE#         678
  C:13A9H         LINE#         679
  C:13B1H         LINE#         680
  C:13CEH         LINE#         682
  C:13D0H         LINE#         683
  C:13D2H         LINE#         684
  C:13FAH         LINE#         685
  C:13FAH         LINE#         686
  C:13FCH         LINE#         687
  C:13FFH         LINE#         688
  C:1413H         LINE#         689
  C:1416H         LINE#         690
BL51 BANKED LINKER/LOCATER V6.22                                                      12/10/2019  11:35:57  PAGE 35


  C:1418H         LINE#         691
  C:143AH         LINE#         692
  C:143AH         LINE#         693
  C:143CH         LINE#         694
  C:143FH         LINE#         695
  C:1453H         LINE#         696
  C:1456H         LINE#         697
  C:1458H         LINE#         699
  C:1458H         LINE#         700
  C:145BH         LINE#         701
  C:1465H         LINE#         702
  C:1468H         LINE#         703
  C:1468H         LINE#         705
  C:146BH         LINE#         706
  C:146BH         LINE#         707
  C:146EH         LINE#         708
  C:146EH         LINE#         709
  C:1479H         LINE#         710
  C:1479H         LINE#         711
  C:147BH         LINE#         712
  C:147DH         LINE#         713
  C:147DH         LINE#         714
  C:147FH         LINE#         716
  C:147FH         LINE#         717
  C:1488H         LINE#         718
  C:1488H         LINE#         719
  C:148BH         LINE#         720
  C:148BH         LINE#         721
  C:148BH         LINE#         722
  C:148DH         LINE#         724
  C:148DH         LINE#         725
  C:1490H         LINE#         726
  C:1490H         LINE#         727
  C:1499H         LINE#         728
  C:1499H         LINE#         729
  C:149CH         LINE#         730
  C:149CH         LINE#         731
  C:149EH         LINE#         733
  C:149EH         LINE#         734
  C:14A9H         LINE#         735
  C:14A9H         LINE#         736
  C:14ABH         LINE#         737
  C:14ADH         LINE#         738
  C:14ADH         LINE#         739
  C:14ADH         LINE#         740
  C:14ADH         LINE#         742
  C:14B0H         LINE#         743
  -------         ENDPROC       CURRPROCESS
  -------         PROC          AFERAMCHECK
  -------         DO            
  X:0204H         SYMBOL        RdBuf
  X:0206H         SYMBOL        i
  -------         ENDDO         
  C:39E0H         LINE#         753
  C:39E0H         LINE#         754
  C:39E0H         LINE#         758
  C:39F0H         LINE#         759
BL51 BANKED LINKER/LOCATER V6.22                                                      12/10/2019  11:35:57  PAGE 36


  C:39F0H         LINE#         760
  C:39F7H         LINE#         762
  C:3A25H         LINE#         763
  C:3A25H         LINE#         764
  C:3A2DH         LINE#         765
  C:3A2DH         LINE#         766
  C:3A30H         LINE#         767
  C:3A31H         LINE#         768
  C:3A31H         LINE#         769
  C:3A31H         LINE#         770
  C:3A3AH         LINE#         771
  -------         ENDPROC       AFERAMCHECK
  -------         PROC          ALARMPROCESS
  C:405BH         LINE#         781
  C:405BH         LINE#         782
  C:405BH         LINE#         783
  C:4064H         LINE#         785
  C:406CH         LINE#         786
  C:406CH         LINE#         787
  C:406EH         LINE#         788
  C:406EH         LINE#         790
  C:4072H         LINE#         791
  C:4072H         LINE#         792
  C:4074H         LINE#         793
  C:4074H         LINE#         795
  C:407CH         LINE#         796
  C:407CH         LINE#         797
  C:407EH         LINE#         798
  C:4088H         LINE#         799
  C:4088H         LINE#         801
  C:408CH         LINE#         802
  C:408CH         LINE#         803
  C:408EH         LINE#         804
  C:4098H         LINE#         805
  C:4098H         LINE#         807
  C:409FH         LINE#         808
  C:409FH         LINE#         809
  C:40A2H         LINE#         810
  C:40A2H         LINE#         811
  -------         ENDPROC       ALARMPROCESS
  -------         PROC          WAITADCCONVERT
  -------         DO            
  X:0204H         SYMBOL        i
  B:002BH.6       SYMBOL        result
  -------         ENDDO         
  C:3DC4H         LINE#         821
  C:3DC4H         LINE#         822
  C:3DC4H         LINE#         824
  C:3DC6H         LINE#         826
  C:3DD3H         LINE#         827
  C:3DD3H         LINE#         828
  C:3DD8H         LINE#         829
  C:3DE1H         LINE#         830
  C:3DE8H         LINE#         831
  C:3DE8H         LINE#         832
  C:3DF5H         LINE#         833
  C:3DF5H         LINE#         834
BL51 BANKED LINKER/LOCATER V6.22                                                      12/10/2019  11:35:57  PAGE 37


  C:3DFAH         LINE#         835
  C:3E03H         LINE#         836
  C:3E0AH         LINE#         837
  C:3E0AH         LINE#         838
  C:3E0CH         LINE#         839
  C:3E0CH         LINE#         840
  C:3E0CH         LINE#         841
  C:3E0CH         LINE#         842
  C:3E0CH         LINE#         843
  C:3E0CH         LINE#         844
  C:3E0CH         LINE#         846
  C:3E0EH         LINE#         847
  -------         ENDPROC       WAITADCCONVERT
  -------         PROC          PORONPROTECT
  C:3023H         LINE#         857
  C:3023H         LINE#         858
  C:3023H         LINE#         859
  C:3032H         LINE#         860
  C:3032H         LINE#         861
  C:3034H         LINE#         862
  C:3034H         LINE#         864
  C:3043H         LINE#         865
  C:3043H         LINE#         866
  C:3045H         LINE#         867
  C:3047H         LINE#         868
  C:3049H         LINE#         869
  C:304EH         LINE#         870
  C:3055H         LINE#         871
  C:305EH         LINE#         872
  C:305EH         LINE#         874
  C:3074H         LINE#         875
  C:3074H         LINE#         876
  C:3076H         LINE#         877
  C:3076H         LINE#         879
  C:308CH         LINE#         880
  C:308CH         LINE#         881
  C:308EH         LINE#         882
  C:308EH         LINE#         884
  C:309DH         LINE#         885
  C:309DH         LINE#         886
  C:309FH         LINE#         887
  C:309FH         LINE#         889
  C:30AEH         LINE#         890
  C:30AEH         LINE#         891
  C:30B0H         LINE#         892
  C:30B0H         LINE#         894
  C:30B3H         LINE#         896
  C:30B6H         LINE#         897
  -------         ENDPROC       PORONPROTECT
  -------         PROC          PROTECTPROCESS
  C:4534H         LINE#         907
  C:4534H         LINE#         908
  C:4534H         LINE#         909
  C:4537H         LINE#         910
  C:4537H         LINE#         911
  C:453AH         LINE#         912
  C:453AH         LINE#         914
BL51 BANKED LINKER/LOCATER V6.22                                                      12/10/2019  11:35:57  PAGE 38


  C:453DH         LINE#         916
  C:4540H         LINE#         918
  C:4543H         LINE#         920
  C:454DH         LINE#         921
  C:4557H         LINE#         923
  C:455AH         LINE#         925
  C:455DH         LINE#         927
  C:4560H         LINE#         929
  -------         ENDPROC       PROTECTPROCESS
  -------         PROC          INTOPOWERDOWN
  C:4669H         LINE#         939
  C:4669H         LINE#         940
  C:4669H         LINE#         941
  C:466FH         LINE#         942
  C:4678H         LINE#         943
  C:467FH         LINE#         944
  C:4688H         LINE#         945
  -------         ENDPROC       INTOPOWERDOWN
  -------         ENDMOD        AFEPROCESS

  -------         MODULE        SHUTDOWN
  C:0000H         SYMBOL        _ICE_DUMMY_
  D:0080H         PUBLIC        P0
  D:0090H         PUBLIC        P1
  D:00A0H         PUBLIC        P2
  D:00B0H         PUBLIC        P3
  D:00C0H         PUBLIC        P4
  D:0080H         PUBLIC        P5
  B:00A8H.7       PUBLIC        EA
  B:00C8H.6       PUBLIC        ENTWI
  D:00B7H         PUBLIC        PWM2CON
  D:00A8H         PUBLIC        IEN0
  D:00A9H         PUBLIC        IEN1
  B:0080H.0       PUBLIC        P0_0
  B:00A0H.0       PUBLIC        P2_0
  B:00A0H.1       PUBLIC        P2_1
  B:00A0H.2       PUBLIC        P2_2
  B:00A0H.3       PUBLIC        P2_3
  B:00A0H.4       PUBLIC        P2_4
  B:00A0H.5       PUBLIC        P2_5
  D:00BAH         PUBLIC        IENC
  C:3264H         PUBLIC        LowPowerCheck
  C:3924H         PUBLIC        SystemIntoIdle
  C:42FAH         PUBLIC        LowPowerProcess
  C:3AE9H         PUBLIC        WakeUpProcess
  C:46A8H         PUBLIC        SystemIntoPD
  D:00B2H         PUBLIC        CLKCON
  -------         PROC          WAKEUPPROCESS
  C:3AE9H         LINE#         22
  C:3AE9H         LINE#         23
  C:3AE9H         LINE#         24
  C:3AEBH         LINE#         25
  C:3AF1H         LINE#         26
  C:3AF1H         LINE#         27
  C:3AF4H         LINE#         29
  C:3AF6H         LINE#         30
  C:3AF8H         LINE#         31
BL51 BANKED LINKER/LOCATER V6.22                                                      12/10/2019  11:35:57  PAGE 39


  C:3AFDH         LINE#         32
  C:3B01H         LINE#         33
  C:3B03H         LINE#         35
  C:3B08H         LINE#         36
  C:3B0AH         LINE#         37
  C:3B0DH         LINE#         39
  C:3B13H         LINE#         40
  C:3B1CH         LINE#         42
  C:3B23H         LINE#         43
  C:3B2CH         LINE#         44
  C:3B2CH         LINE#         46
  C:3B31H         LINE#         47
  C:3B35H         LINE#         48
  C:3B37H         LINE#         49
  C:3B39H         LINE#         50
  C:3B3DH         LINE#         51
  -------         ENDPROC       WAKEUPPROCESS
  -------         PROC          SYSTEMINTOPD
  C:46A8H         LINE#         61
  C:46A8H         LINE#         62
  C:46A8H         LINE#         63
  C:46ABH         LINE#         64
  C:46ADH         LINE#         66
  C:46AFH         LINE#         67
  C:46B1H         LINE#         69
  C:46B4H         LINE#         70
  C:46B6H         LINE#         71
  C:46C0H         LINE#         73
  C:46C3H         LINE#         74
  -------         ENDPROC       SYSTEMINTOPD
  -------         PROC          SYSTEMINTOIDLE
  C:3924H         LINE#         84
  C:3924H         LINE#         85
  C:3924H         LINE#         86
  C:392BH         LINE#         87
  C:3934H         LINE#         89
  C:393AH         LINE#         90
  C:3943H         LINE#         92
  C:394DH         LINE#         93
  C:394FH         LINE#         94
  C:3951H         LINE#         95
  C:3954H         LINE#         96
  C:3957H         LINE#         97
  C:3957H         LINE#         98
  C:3959H         LINE#         99
  C:395BH         LINE#         101
  C:395BH         LINE#         102
  C:395DH         LINE#         103
  C:395DH         LINE#         105
  C:3962H         LINE#         106
  C:3964H         LINE#         108
  C:3967H         LINE#         109
  C:3968H         LINE#         110
  C:3969H         LINE#         111
  C:396AH         LINE#         112
  C:396BH         LINE#         113
  C:396EH         LINE#         115
BL51 BANKED LINKER/LOCATER V6.22                                                      12/10/2019  11:35:57  PAGE 40


  C:3970H         LINE#         116
  C:3973H         LINE#         117
  C:3976H         LINE#         118
  C:3979H         LINE#         119
  C:397CH         LINE#         120
  C:397EH         LINE#         122
  C:3981H         LINE#         123
  -------         ENDPROC       SYSTEMINTOIDLE
  -------         PROC          LOWPOWERCHECK
  C:3264H         LINE#         133
  C:3264H         LINE#         134
  C:3264H         LINE#         135
  C:326AH         LINE#         136
  C:326AH         LINE#         137
  C:326CH         LINE#         138
  C:326EH         LINE#         139
  C:326FH         LINE#         140
  C:3272H         LINE#         141
  C:3272H         LINE#         142
  C:3281H         LINE#         143
  C:3281H         LINE#         144
  C:3283H         LINE#         145
  C:3285H         LINE#         146
  C:3285H         LINE#         147
  C:3286H         LINE#         148
  C:3289H         LINE#         149
  C:3289H         LINE#         150
  C:328FH         LINE#         151
  C:328FH         LINE#         152
  C:3292H         LINE#         153
  C:3292H         LINE#         154
  C:32A1H         LINE#         155
  C:32A1H         LINE#         156
  C:32A3H         LINE#         157
  C:32A5H         LINE#         158
  C:32A5H         LINE#         159
  C:32A6H         LINE#         161
  C:32A6H         LINE#         162
  C:32ABH         LINE#         163
  C:32C1H         LINE#         164
  C:32C1H         LINE#         165
  C:32CFH         LINE#         166
  C:32CFH         LINE#         167
  C:32D1H         LINE#         168
  C:32D3H         LINE#         169
  C:32D3H         LINE#         170
  C:32D4H         LINE#         172
  C:32D4H         LINE#         173
  C:32D9H         LINE#         174
  C:32D9H         LINE#         175
  C:32D9H         LINE#         176
  C:32DAH         LINE#         178
  C:32DAH         LINE#         179
  C:32DFH         LINE#         180
  C:32E3H         LINE#         181
  C:32E3H         LINE#         182
  C:32E4H         LINE#         184
BL51 BANKED LINKER/LOCATER V6.22                                                      12/10/2019  11:35:57  PAGE 41


  C:32E4H         LINE#         185
  C:32E9H         LINE#         186
  C:32EDH         LINE#         187
  C:32EDH         LINE#         188
  -------         ENDPROC       LOWPOWERCHECK
  -------         PROC          LOWPOWERPROCESS
  C:42FAH         LINE#         198
  C:42FAH         LINE#         199
  C:42FAH         LINE#         200
  C:4300H         LINE#         201
  C:4300H         LINE#         202
  C:4302H         LINE#         203
  C:431EH         LINE#         204
  C:431EH         LINE#         205
  C:4320H         LINE#         206
  C:4323H         LINE#         207
  C:4323H         LINE#         208
  C:4325H         LINE#         209
  C:4326H         LINE#         210
  C:4329H         LINE#         211
  C:4329H         LINE#         212
  C:432CH         LINE#         213
  C:432DH         LINE#         214
  C:4330H         LINE#         215
  C:4330H         LINE#         216
  C:4333H         LINE#         217
  C:4333H         LINE#         218
  -------         ENDPROC       LOWPOWERPROCESS
  -------         ENDMOD        SHUTDOWN

  -------         MODULE        KEY
  C:0000H         SYMBOL        _ICE_DUMMY_
  D:0080H         PUBLIC        P0
  D:0090H         PUBLIC        P1
  D:00A0H         PUBLIC        P2
  D:00B0H         PUBLIC        P3
  C:2BB3H         PUBLIC        ProcessKeySpeed
  D:00C0H         PUBLIC        P4
  D:0080H         PUBLIC        P5
  B:00A8H.7       PUBLIC        EA
  D:00B7H         PUBLIC        PWM2CON
  C:4130H         PUBLIC        KeyProcess
  B:0080H.0       PUBLIC        P0_0
  B:0080H.1       PUBLIC        P0_1
  B:00B0H.1       PUBLIC        P3_1
  B:00A0H.5       PUBLIC        P2_5
  C:34F4H         PUBLIC        ScanKey
  D:00BFH         PUBLIC        PWM2DH
  D:00BEH         PUBLIC        PWM2DL
  D:00B1H         PUBLIC        RSTSTAT
  D:00BDH         PUBLIC        PWM2PH
  D:00BCH         PUBLIC        PWM2PL
  -------         PROC          SCANKEY
  -------         DO            
  C:3566H         SYMBOL        scanend
  -------         ENDDO         
  C:34F4H         LINE#         21
BL51 BANKED LINKER/LOCATER V6.22                                                      12/10/2019  11:35:57  PAGE 42


  C:34F4H         LINE#         22
  C:34F4H         LINE#         23
  C:34F7H         LINE#         24
  C:34FAH         LINE#         25
  C:34FAH         LINE#         26
  C:34FDH         LINE#         27
  C:3500H         LINE#         28
  C:3500H         LINE#         29
  C:3503H         LINE#         30
  C:3505H         LINE#         31
  C:3508H         LINE#         32
  C:3508H         LINE#         33
  C:350BH         LINE#         34
  C:350BH         LINE#         36
  C:3511H         LINE#         37
  C:3511H         LINE#         38
  C:3513H         LINE#         39
  C:351AH         LINE#         40
  C:351AH         LINE#         41
  C:3520H         LINE#         42
  C:3520H         LINE#         43
  C:3526H         LINE#         44
  C:3526H         LINE#         45
  C:352CH         LINE#         46
  C:352EH         LINE#         48
  C:352EH         LINE#         49
  C:3531H         LINE#         50
  C:3531H         LINE#         51
  C:3533H         LINE#         52
  C:3535H         LINE#         53
  C:3535H         LINE#         55
  C:3535H         LINE#         56
  C:3537H         LINE#         57
  C:3537H         LINE#         58
  C:3538H         LINE#         60
  C:3538H         LINE#         61
  C:3538H         LINE#         62
  C:3538H         LINE#         63
  C:3539H         LINE#         65
  C:3539H         LINE#         66
  C:353FH         LINE#         67
  C:353FH         LINE#         68
  C:3542H         LINE#         69
  C:3544H         LINE#         70
  C:3549H         LINE#         71
  C:3549H         LINE#         72
  C:354FH         LINE#         73
  C:3551H         LINE#         74
  C:3552H         LINE#         75
  C:3557H         LINE#         76
  C:3557H         LINE#         77
  C:355AH         LINE#         78
  C:3560H         LINE#         79
  C:3562H         LINE#         80
  C:3562H         LINE#         81
  C:3563H         LINE#         83
  C:3563H         LINE#         84
BL51 BANKED LINKER/LOCATER V6.22                                                      12/10/2019  11:35:57  PAGE 43


  C:3566H         LINE#         85
  C:3566H         LINE#         86
  C:3569H         LINE#         87
  C:356BH         LINE#         88
  C:356EH         LINE#         89
  C:356EH         LINE#         90
  C:356EH         LINE#         91
  C:356EH         LINE#         92
  -------         ENDPROC       SCANKEY
  -------         PROC          PROCESSKEYSPEED
  C:2BB3H         LINE#         101
  C:2BB3H         LINE#         102
  C:2BB3H         LINE#         103
  C:2BB5H         LINE#         104
  C:2BB7H         LINE#         105
  C:2BB9H         LINE#         107
  C:2BBFH         LINE#         108
  C:2BBFH         LINE#         109
  C:2BC1H         LINE#         110
  C:2BC3H         LINE#         111
  C:2BE1H         LINE#         112
  C:2BFCH         LINE#         113
  C:2BFEH         LINE#         114
  C:2C05H         LINE#         115
  C:2C05H         LINE#         116
  C:2C08H         LINE#         117
  C:2C0AH         LINE#         118
  C:2C0CH         LINE#         119
  C:2C0FH         LINE#         120
  C:2C11H         LINE#         122
  C:2C11H         LINE#         123
  C:2C16H         LINE#         124
  C:2C18H         LINE#         125
  C:2C36H         LINE#         126
  C:2C51H         LINE#         127
  C:2C51H         LINE#         129
  C:2C5BH         LINE#         130
  -------         ENDPROC       PROCESSKEYSPEED
  -------         PROC          KEYPROCESS
  C:4130H         LINE#         140
  C:4130H         LINE#         141
  C:4130H         LINE#         142
  C:4141H         LINE#         143
  C:4141H         LINE#         144
  C:4141H         LINE#         145
  C:4144H         LINE#         146
  C:4145H         LINE#         148
  C:4145H         LINE#         149
  C:4148H         LINE#         150
  C:4148H         LINE#         151
  C:414AH         LINE#         152
  C:414FH         LINE#         153
  C:4152H         LINE#         154
  C:4153H         LINE#         156
  C:4153H         LINE#         157
  C:4158H         LINE#         158
  C:4158H         LINE#         159
BL51 BANKED LINKER/LOCATER V6.22                                                      12/10/2019  11:35:57  PAGE 44


  C:4159H         LINE#         161
  C:4159H         LINE#         162
  C:415BH         LINE#         163
  C:415EH         LINE#         164
  C:4163H         LINE#         165
  C:4169H         LINE#         166
  C:416CH         LINE#         167
  C:416DH         LINE#         169
  C:416DH         LINE#         170
  C:416FH         LINE#         171
  C:4174H         LINE#         172
  C:4174H         LINE#         174
  C:4174H         LINE#         175
  C:4174H         LINE#         176
  C:4174H         LINE#         177
  -------         ENDPROC       KEYPROCESS
  -------         ENDMOD        KEY

  -------         MODULE        LED
  C:0000H         SYMBOL        _ICE_DUMMY_
  D:0080H         PUBLIC        P0
  D:0090H         PUBLIC        P1
  D:00A0H         PUBLIC        P2
  D:00B0H         PUBLIC        P3
  C:0006H         PUBLIC        LEDPowerOff
  D:00C0H         PUBLIC        P4
  D:0080H         PUBLIC        P5
  B:00A0H.0       PUBLIC        P2_0
  B:00A0H.1       PUBLIC        P2_1
  B:00A0H.2       PUBLIC        P2_2
  B:00A0H.3       PUBLIC        P2_3
  B:00A0H.4       PUBLIC        P2_4
  C:202EH         PUBLIC        LEDPowerOn
  -------         PROC          LEDPOWERON
  C:202EH         LINE#         21
  C:202EH         LINE#         22
  C:202EH         LINE#         23
  C:2034H         LINE#         24
  C:2034H         LINE#         25
  C:2044H         LINE#         26
  C:2044H         LINE#         27
  C:204EH         LINE#         28
  C:204FH         LINE#         29
  C:2058H         LINE#         30
  C:2058H         LINE#         31
  C:2062H         LINE#         32
  C:2063H         LINE#         33
  C:206CH         LINE#         34
  C:206CH         LINE#         35
  C:2076H         LINE#         36
  C:2077H         LINE#         38
  C:2077H         LINE#         39
  C:2081H         LINE#         40
  C:2081H         LINE#         41
  C:2082H         LINE#         42
  C:2088H         LINE#         43
  C:2088H         LINE#         44
BL51 BANKED LINKER/LOCATER V6.22                                                      12/10/2019  11:35:57  PAGE 45


  C:2098H         LINE#         45
  C:2098H         LINE#         46
  C:20A2H         LINE#         47
  C:20A3H         LINE#         48
  C:20ACH         LINE#         49
  C:20ACH         LINE#         50
  C:20B6H         LINE#         51
  C:20B7H         LINE#         52
  C:20C0H         LINE#         53
  C:20C0H         LINE#         54
  C:20CAH         LINE#         55
  C:20CBH         LINE#         56
  C:20D4H         LINE#         57
  C:20D4H         LINE#         58
  C:20DEH         LINE#         59
  C:20DFH         LINE#         61
  C:20DFH         LINE#         62
  C:20E9H         LINE#         63
  C:20E9H         LINE#         64
  C:20EAH         LINE#         65
  C:20F0H         LINE#         66
  C:20F0H         LINE#         67
  C:2100H         LINE#         68
  C:2100H         LINE#         69
  C:210AH         LINE#         70
  C:210BH         LINE#         71
  C:2114H         LINE#         72
  C:2114H         LINE#         73
  C:211EH         LINE#         74
  C:211FH         LINE#         75
  C:2128H         LINE#         76
  C:2128H         LINE#         77
  C:2132H         LINE#         78
  C:2133H         LINE#         79
  C:213CH         LINE#         80
  C:213CH         LINE#         81
  C:2146H         LINE#         82
  C:2147H         LINE#         83
  C:2150H         LINE#         84
  C:2150H         LINE#         85
  C:215AH         LINE#         86
  C:215BH         LINE#         88
  C:215BH         LINE#         89
  C:2165H         LINE#         90
  C:2165H         LINE#         91
  C:2165H         LINE#         92
  -------         ENDPROC       LEDPOWERON
  -------         PROC          LEDPOWEROFF
  C:0006H         LINE#         94
  C:0006H         LINE#         95
  C:0006H         LINE#         96
  C:0009H         LINE#         97
  C:0009H         LINE#         98
  C:0014H         LINE#         99
  C:0014H         LINE#         100
  C:0016H         LINE#         101
  C:0018H         LINE#         102
BL51 BANKED LINKER/LOCATER V6.22                                                      12/10/2019  11:35:57  PAGE 46


  C:0022H         LINE#         103
  C:0022H         LINE#         104
  C:0022H         LINE#         105
  -------         ENDPROC       LEDPOWEROFF
  -------         ENDMOD        LED

  -------         MODULE        UART
  C:0000H         SYMBOL        _ICE_DUMMY_
  D:0080H         PUBLIC        P0
  D:0090H         PUBLIC        P1
  D:00A0H         PUBLIC        P2
  D:00B0H         PUBLIC        P3
  D:00C4H         PUBLIC        UART0CR
  D:00C0H         PUBLIC        P4
  C:4648H         PUBLIC        InitUART0
  D:009DH         PUBLIC        SBRTH
  D:0080H         PUBLIC        P5
  D:009CH         PUBLIC        SBRTL
  C:3C2FH         PUBLIC        ISPCODE
  C:1DA3H         PUBLIC        InterruptUART
  C:4175H         PUBLIC        WriteManufacture
  B:0098H.0       PUBLIC        RI
  B:0098H.1       PUBLIC        TI
  C:37FFH         PUBLIC        _UartReadInfo
  C:473FH         PUBLIC        UartHandshake
  C:3BE7H         PUBLIC        Page1WrRdFuncTable
  C:3C0BH         PUBLIC        Page2WrRdFuncTable
  D:0099H         PUBLIC        SBUF
  D:0087H         PUBLIC        PCON
  C:4334H         PUBLIC        ReadSubClassID
  D:0098H         PUBLIC        SCON
  C:3EEFH         PUBLIC        CalibVoltage
  C:3F38H         PUBLIC        CalibTS1
  C:3F81H         PUBLIC        CalibTS2
  D:00B1H         PUBLIC        RSTSTAT
  C:35E7H         PUBLIC        _UartWriteInfo
  C:2A5AH         PUBLIC        CalibCurrent
  C:3FCAH         PUBLIC        CalibRTC
  D:0086H         PUBLIC        INSCON
  C:0EB2H         PUBLIC        UartRdCmdProcess
  C:2C5CH         PUBLIC        UartWrCmdProcess
  B:0098H.4       PUBLIC        REN
  D:009BH         PUBLIC        SADEN
  D:009AH         PUBLIC        SADDR
  C:43A2H         PUBLIC        CalibCurOffset
  D:009EH         PUBLIC        SFINE
  C:4561H         PUBLIC        ISPHandshake
  -------         PROC          INITUART0
  C:4648H         LINE#         78
  C:4648H         LINE#         79
  C:4648H         LINE#         81
  C:464BH         LINE#         82
  C:464EH         LINE#         83
  C:4651H         LINE#         84
  C:4654H         LINE#         85
  C:4657H         LINE#         86
  C:465AH         LINE#         87
BL51 BANKED LINKER/LOCATER V6.22                                                      12/10/2019  11:35:57  PAGE 47


  C:465DH         LINE#         88
  C:4660H         LINE#         91
  C:4664H         LINE#         92
  C:4668H         LINE#         93
  -------         ENDPROC       INITUART0
  -------         PROC          ISPHANDSHAKE
  -------         DO            
  D:0007H         SYMBOL        i
  -------         ENDDO         
  C:4561H         LINE#         105
  C:4561H         LINE#         106
  C:4561H         LINE#         109
  C:4563H         LINE#         110
  C:4563H         LINE#         111
  C:4579H         LINE#         112
  C:4579H         LINE#         113
  C:457FH         LINE#         115
  C:457FH         LINE#         116
  C:4584H         LINE#         117
  C:4586H         LINE#         118
  C:4588H         LINE#         119
  C:458DH         LINE#         120
  -------         ENDPROC       ISPHANDSHAKE
  -------         PROC          UARTHANDSHAKE
  C:473FH         LINE#         130
  C:473FH         LINE#         131
  C:473FH         LINE#         132
  C:4745H         LINE#         133
  C:4745H         LINE#         134
  C:474AH         LINE#         135
  C:474BH         LINE#         137
  C:474BH         LINE#         138
  C:4750H         LINE#         139
  C:4750H         LINE#         140
  -------         ENDPROC       UARTHANDSHAKE
  -------         PROC          _UARTWRITEINFO
  X:0202H         SYMBOL        ptr
  -------         DO            
  D:0007H         SYMBOL        i
  -------         ENDDO         
  C:35E7H         LINE#         150
  C:35EFH         LINE#         151
  C:35EFH         LINE#         154
  C:3610H         LINE#         155
  C:3610H         LINE#         156
  C:361BH         LINE#         157
  C:361BH         LINE#         158
  C:361EH         LINE#         159
  C:3637H         LINE#         160
  C:3645H         LINE#         161
  C:3648H         LINE#         163
  C:364AH         LINE#         165
  C:364FH         LINE#         167
  C:3654H         LINE#         168
  C:3655H         LINE#         170
  C:3655H         LINE#         171
  C:365AH         LINE#         172
BL51 BANKED LINKER/LOCATER V6.22                                                      12/10/2019  11:35:57  PAGE 48


  C:365AH         LINE#         173
  -------         ENDPROC       _UARTWRITEINFO
  -------         PROC          _UARTREADINFO
  D:0006H         SYMBOL        ptr
  -------         DO            
  D:0005H         SYMBOL        i
  -------         ENDDO         
  C:37FFH         LINE#         183
  C:37FFH         LINE#         184
  C:37FFH         LINE#         187
  C:3808H         LINE#         188
  C:3808H         LINE#         189
  C:380AH         LINE#         190
  C:380AH         LINE#         192
  C:3816H         LINE#         193
  C:3816H         LINE#         194
  C:3819H         LINE#         195
  C:382BH         LINE#         196
  C:3830H         LINE#         197
  C:3833H         LINE#         198
  C:384FH         LINE#         200
  C:3861H         LINE#         201
  -------         ENDPROC       _UARTREADINFO
  -------         PROC          WRITEMANUFACTURE
  C:4175H         LINE#         210
  C:4175H         LINE#         211
  C:4175H         LINE#         212
  C:4196H         LINE#         213
  C:4196H         LINE#         214
  C:419EH         LINE#         215
  C:419EH         LINE#         216
  C:41A4H         LINE#         217
  C:41A6H         LINE#         218
  C:41AAH         LINE#         219
  C:41AAH         LINE#         220
  C:41ACH         LINE#         221
  C:41ACH         LINE#         222
  C:41AEH         LINE#         223
  C:41B3H         LINE#         224
  C:41B4H         LINE#         226
  C:41B4H         LINE#         227
  C:41B9H         LINE#         228
  C:41B9H         LINE#         229
  -------         ENDPROC       WRITEMANUFACTURE
  -------         PROC          READSUBCLASSID
  C:4334H         LINE#         232
  C:4334H         LINE#         233
  C:4334H         LINE#         234
  C:4355H         LINE#         235
  C:4355H         LINE#         236
  C:435DH         LINE#         238
  C:435FH         LINE#         239
  C:4364H         LINE#         240
  C:4365H         LINE#         242
  C:4365H         LINE#         243
  C:436AH         LINE#         244
  C:436AH         LINE#         245
BL51 BANKED LINKER/LOCATER V6.22                                                      12/10/2019  11:35:57  PAGE 49


  -------         ENDPROC       READSUBCLASSID
  -------         PROC          UARTRDCMDPROCESS
  -------         DO            
  X:0200H         SYMBOL        rdaddr
  -------         ENDDO         
  C:0EB2H         LINE#         256
  C:0EB2H         LINE#         257
  C:0EB2H         LINE#         260
  C:0F21H         LINE#         261
  C:0F21H         LINE#         262
  C:0F21H         LINE#         263
  C:0F24H         LINE#         264
  C:0F25H         LINE#         266
  C:0F25H         LINE#         267
  C:0F36H         LINE#         268
  C:0F37H         LINE#         270
  C:0F37H         LINE#         271
  C:0F48H         LINE#         272
  C:0F49H         LINE#         274
  C:0F49H         LINE#         275
  C:0F5AH         LINE#         276
  C:0F5BH         LINE#         278
  C:0F5BH         LINE#         279
  C:0F6CH         LINE#         280
  C:0F6DH         LINE#         282
  C:0F6DH         LINE#         283
  C:0F7EH         LINE#         284
  C:0F7FH         LINE#         286
  C:0F7FH         LINE#         287
  C:0F90H         LINE#         288
  C:0F91H         LINE#         290
  C:0F91H         LINE#         291
  C:0FA2H         LINE#         292
  C:0FA3H         LINE#         294
  C:0FA3H         LINE#         295
  C:0FB4H         LINE#         296
  C:0FB5H         LINE#         298
  C:0FB5H         LINE#         299
  C:0FC6H         LINE#         300
  C:0FC7H         LINE#         302
  C:0FC7H         LINE#         303
  C:0FD8H         LINE#         304
  C:0FD9H         LINE#         306
  C:0FD9H         LINE#         307
  C:0FE0H         LINE#         308
  C:0FE1H         LINE#         310
  C:0FE1H         LINE#         311
  C:0FE8H         LINE#         312
  C:0FE9H         LINE#         314
  C:0FE9H         LINE#         315
  C:0FF0H         LINE#         316
  C:0FF1H         LINE#         318
  C:0FF1H         LINE#         319
  C:0FF8H         LINE#         320
  C:0FF9H         LINE#         322
  C:0FF9H         LINE#         323
  C:1000H         LINE#         324
BL51 BANKED LINKER/LOCATER V6.22                                                      12/10/2019  11:35:57  PAGE 50


  C:1001H         LINE#         326
  C:1001H         LINE#         327
  C:1008H         LINE#         328
  C:1009H         LINE#         330
  C:1009H         LINE#         331
  C:1010H         LINE#         332
  C:1011H         LINE#         334
  C:1011H         LINE#         335
  C:1018H         LINE#         336
  C:1019H         LINE#         338
  C:1019H         LINE#         339
  C:1020H         LINE#         340
  C:1021H         LINE#         342
  C:1021H         LINE#         343
  C:1028H         LINE#         344
  C:1029H         LINE#         346
  C:1029H         LINE#         347
  C:1030H         LINE#         348
  C:1031H         LINE#         350
  C:1031H         LINE#         351
  C:1038H         LINE#         352
  C:1039H         LINE#         354
  C:1039H         LINE#         355
  C:1040H         LINE#         356
  C:1041H         LINE#         358
  C:1041H         LINE#         359
  C:1048H         LINE#         360
  C:1049H         LINE#         362
  C:1049H         LINE#         363
  C:104CH         LINE#         364
  C:104DH         LINE#         366
  C:104DH         LINE#         367
  C:1056H         LINE#         368
  C:1056H         LINE#         369
  C:1058H         LINE#         370
  C:105AH         LINE#         371
  C:105BH         LINE#         372
  C:1069H         LINE#         373
  C:1069H         LINE#         374
  C:106BH         LINE#         375
  C:106DH         LINE#         376
  C:106EH         LINE#         377
  C:1075H         LINE#         378
  C:1075H         LINE#         379
  C:1093H         LINE#         380
  C:1096H         LINE#         381
  C:1097H         LINE#         382
  C:109EH         LINE#         383
  C:109EH         LINE#         384
  C:10BCH         LINE#         385
  C:10BFH         LINE#         386
  C:10BFH         LINE#         387
  C:10BFH         LINE#         388
  C:10BFH         LINE#         389
  -------         ENDPROC       UARTRDCMDPROCESS
  -------         PROC          CALIBVOLTAGE
  C:3EEFH         LINE#         399
BL51 BANKED LINKER/LOCATER V6.22                                                      12/10/2019  11:35:57  PAGE 51


  C:3EEFH         LINE#         400
  C:3EEFH         LINE#         401
  C:3F10H         LINE#         402
  C:3F10H         LINE#         403
  C:3F12H         LINE#         404
  C:3F25H         LINE#         405
  C:3F2CH         LINE#         407
  C:3F31H         LINE#         408
  C:3F32H         LINE#         410
  C:3F32H         LINE#         411
  C:3F37H         LINE#         412
  C:3F37H         LINE#         413
  -------         ENDPROC       CALIBVOLTAGE
  -------         PROC          CALIBCURRENT
  C:2A5AH         LINE#         423
  C:2A5AH         LINE#         424
  C:2A5AH         LINE#         425
  C:2A7EH         LINE#         426
  C:2A7EH         LINE#         427
  C:2A80H         LINE#         431
  C:2AF5H         LINE#         432
  C:2AFCH         LINE#         434
  C:2B01H         LINE#         435
  C:2B02H         LINE#         437
  C:2B02H         LINE#         438
  C:2B07H         LINE#         439
  C:2B07H         LINE#         440
  -------         ENDPROC       CALIBCURRENT
  -------         PROC          CALIBCUROFFSET
  C:43A2H         LINE#         443
  C:43A2H         LINE#         444
  C:43A2H         LINE#         445
  C:43C3H         LINE#         446
  C:43C3H         LINE#         447
  C:43C5H         LINE#         448
  C:43CCH         LINE#         450
  C:43D1H         LINE#         451
  C:43D2H         LINE#         453
  C:43D2H         LINE#         454
  C:43D7H         LINE#         455
  C:43D7H         LINE#         456
  -------         ENDPROC       CALIBCUROFFSET
  -------         PROC          CALIBTS1
  C:3F38H         LINE#         466
  C:3F38H         LINE#         467
  C:3F38H         LINE#         468
  C:3F59H         LINE#         469
  C:3F59H         LINE#         470
  C:3F5BH         LINE#         471
  C:3F6EH         LINE#         472
  C:3F75H         LINE#         474
  C:3F7AH         LINE#         475
  C:3F7BH         LINE#         477
  C:3F7BH         LINE#         478
  C:3F80H         LINE#         479
  C:3F80H         LINE#         480
  -------         ENDPROC       CALIBTS1
BL51 BANKED LINKER/LOCATER V6.22                                                      12/10/2019  11:35:57  PAGE 52


  -------         PROC          CALIBTS2
  C:3F81H         LINE#         483
  C:3F81H         LINE#         484
  C:3F81H         LINE#         485
  C:3FA2H         LINE#         486
  C:3FA2H         LINE#         487
  C:3FA4H         LINE#         488
  C:3FB7H         LINE#         489
  C:3FBEH         LINE#         491
  C:3FC3H         LINE#         492
  C:3FC4H         LINE#         494
  C:3FC4H         LINE#         495
  C:3FC9H         LINE#         496
  C:3FC9H         LINE#         497
  -------         ENDPROC       CALIBTS2
  -------         PROC          CALIBRTC
  -------         DO            
  D:0005H         SYMBOL        i
  -------         ENDDO         
  C:3FCAH         LINE#         507
  C:3FCAH         LINE#         508
  C:3FCAH         LINE#         511
  C:3FEBH         LINE#         512
  C:3FEBH         LINE#         513
  C:3FECH         LINE#         514
  C:3FECH         LINE#         515
  C:3FEEH         LINE#         516
  C:4006H         LINE#         517
  C:400DH         LINE#         518
  C:4012H         LINE#         519
  C:4012H         LINE#         520
  -------         ENDPROC       CALIBRTC
  -------         PROC          UARTWRCMDPROCESS
  -------         DO            
  X:0200H         SYMBOL        rdaddr
  -------         ENDDO         
  C:2C5CH         LINE#         530
  C:2C5CH         LINE#         531
  C:2C5CH         LINE#         533
  C:2C88H         LINE#         534
  C:2C88H         LINE#         535
  C:2C88H         LINE#         536
  C:2C8BH         LINE#         537
  C:2C8CH         LINE#         538
  C:2C8CH         LINE#         539
  C:2C8FH         LINE#         540
  C:2C90H         LINE#         541
  C:2C90H         LINE#         542
  C:2C93H         LINE#         543
  C:2C94H         LINE#         544
  C:2C94H         LINE#         545
  C:2C97H         LINE#         546
  C:2C98H         LINE#         547
  C:2C98H         LINE#         548
  C:2C9BH         LINE#         549
  C:2C9CH         LINE#         550
  C:2C9CH         LINE#         551
BL51 BANKED LINKER/LOCATER V6.22                                                      12/10/2019  11:35:57  PAGE 53


  C:2C9FH         LINE#         552
  C:2CA0H         LINE#         553
  C:2CA0H         LINE#         554
  C:2CA3H         LINE#         555
  C:2CA4H         LINE#         557
  C:2CA4H         LINE#         558
  C:2CA7H         LINE#         559
  C:2CA8H         LINE#         563
  C:2CA8H         LINE#         564
  C:2CC6H         LINE#         565
  C:2CC9H         LINE#         566
  C:2CCAH         LINE#         567
  C:2CCAH         LINE#         568
  C:2CE8H         LINE#         569
  C:2CEBH         LINE#         570
  C:2CECH         LINE#         572
  C:2CECH         LINE#         573
  C:2CF3H         LINE#         574
  C:2CF3H         LINE#         575
  C:2CF5H         LINE#         576
  C:2CF7H         LINE#         577
  C:2CFCH         LINE#         578
  C:2CFDH         LINE#         580
  C:2CFDH         LINE#         581
  C:2D02H         LINE#         582
  C:2D02H         LINE#         583
  C:2D02H         LINE#         584
  C:2D02H         LINE#         585
  -------         ENDPROC       UARTWRCMDPROCESS
  -------         PROC          INTERRUPTUART
  C:1DA3H         LINE#         602
  C:1DC0H         LINE#         604
  C:1DC2H         LINE#         605
  C:1DC5H         LINE#         607
  C:1DCBH         LINE#         608
  C:1DCBH         LINE#         609
  C:1DDBH         LINE#         610
  C:1DE1H         LINE#         611
  C:1DE7H         LINE#         612
  C:1DE7H         LINE#         613
  C:1DE9H         LINE#         614
  C:1DE9H         LINE#         615
  C:1DF0H         LINE#         616
  C:1DF0H         LINE#         617
  C:1DFAH         LINE#         618
  C:1DFAH         LINE#         619
  C:1DFEH         LINE#         620
  C:1DFEH         LINE#         621
  C:1E00H         LINE#         622
  C:1E02H         LINE#         624
  C:1E02H         LINE#         625
  C:1E04H         LINE#         626
  C:1E04H         LINE#         627
  C:1E06H         LINE#         629
  C:1E06H         LINE#         630
  C:1E0BH         LINE#         631
  C:1E0BH         LINE#         632
BL51 BANKED LINKER/LOCATER V6.22                                                      12/10/2019  11:35:57  PAGE 54


  C:1E0BH         LINE#         633
  C:1E0EH         LINE#         634
  C:1E0EH         LINE#         635
  C:1E1DH         LINE#         637
  C:1E1DH         LINE#         638
  C:1E20H         LINE#         639
  C:1E22H         LINE#         640
  C:1E42H         LINE#         642
  C:1E42H         LINE#         643
  C:1E44H         LINE#         644
  C:1E49H         LINE#         645
  C:1E4CH         LINE#         646
  C:1E4CH         LINE#         647
  C:1E4CH         LINE#         649
  C:1E4FH         LINE#         650
  C:1E4FH         LINE#         651
  C:1E68H         LINE#         652
  C:1E68H         LINE#         653
  C:1E6BH         LINE#         654
  C:1E6DH         LINE#         655
  C:1E72H         LINE#         656
  C:1E72H         LINE#         657
  C:1E72H         LINE#         658
  C:1E74H         LINE#         659
  C:1E76H         LINE#         660
  C:1E76H         LINE#         662
  C:1E79H         LINE#         663
  C:1E79H         LINE#         664
  C:1E96H         LINE#         665
  C:1E96H         LINE#         666
  C:1E98H         LINE#         667
  C:1E9DH         LINE#         668
  C:1E9FH         LINE#         669
  C:1EA3H         LINE#         670
  C:1EA5H         LINE#         671
  C:1EA7H         LINE#         672
  C:1EA9H         LINE#         673
  C:1EABH         LINE#         675
  C:1EABH         LINE#         676
  C:1EB1H         LINE#         677
  C:1EBEH         LINE#         678
  C:1EBEH         LINE#         679
  C:1EC0H         LINE#         680
  C:1EC2H         LINE#         681
  C:1EC2H         LINE#         683
  C:1EC7H         LINE#         684
  C:1ECBH         LINE#         685
  C:1ECFH         LINE#         687
  C:1ED1H         LINE#         688
  -------         ENDPROC       INTERRUPTUART
  -------         ENDMOD        UART

  -------         MODULE        COMMON
  C:0000H         SYMBOL        _ICE_DUMMY_
  D:0080H         PUBLIC        P0
  D:0090H         PUBLIC        P1
  D:00A0H         PUBLIC        P2
BL51 BANKED LINKER/LOCATER V6.22                                                      12/10/2019  11:35:57  PAGE 55


  D:00B0H         PUBLIC        P3
  D:00C0H         PUBLIC        P4
  C:46C4H         PUBLIC        _Delay1ms
  D:009DH         PUBLIC        SBRTH
  D:0080H         PUBLIC        P5
  D:009CH         PUBLIC        SBRTL
  D:00A8H         PUBLIC        IEN0
  D:00A9H         PUBLIC        IEN1
  D:00E8H         PUBLIC        EXF0
  D:008EH         PUBLIC        SUSLO
  C:436BH         PUBLIC        _MemoryCopy
  C:4760H         PUBLIC        IntoIdle
  C:471AH         PUBLIC        ResetInit
  C:44D8H         PUBLIC        _MemorySet
  C:476CH         PUBLIC        IntoPD
  D:0087H         PUBLIC        PCON
  D:0098H         PUBLIC        SCON
  D:0088H         PUBLIC        TCON
  C:4440H         PUBLIC        ClrRam
  C:3982H         PUBLIC        RamCheckProcess
  -------         PROC          _DELAY1MS
  D:0007H         SYMBOL        delaycnt
  -------         DO            
  D:0006H         SYMBOL        i
  D:0004H         SYMBOL        j
  -------         ENDDO         
  C:46C4H         LINE#         24
  C:46C4H         LINE#         25
  C:46C4H         LINE#         29
  C:46CBH         LINE#         30
  C:46CBH         LINE#         31
  C:46CEH         LINE#         32
  C:46CEH         LINE#         33
  C:46D9H         LINE#         34
  C:46DCH         LINE#         35
  -------         ENDPROC       _DELAY1MS
  -------         PROC          CLRRAM
  -------         DO            
  D:0000H         SYMBOL        ptr1
  D:0006H         SYMBOL        ptr2
  D:0007H         SYMBOL        i
  I:001BH         SYMBOL        j
  -------         ENDDO         
  C:4440H         LINE#         46
  C:4440H         LINE#         47
  C:4440H         LINE#         53
  C:4442H         LINE#         54
  C:4442H         LINE#         55
  C:4446H         LINE#         56
  C:4448H         LINE#         57
  C:444FH         LINE#         59
  C:4464H         LINE#         60
  C:4464H         LINE#         61
  C:4464H         LINE#         62
  C:446AH         LINE#         63
  C:4472H         LINE#         64
  -------         ENDPROC       CLRRAM
BL51 BANKED LINKER/LOCATER V6.22                                                      12/10/2019  11:35:57  PAGE 56


  -------         PROC          RAMCHECKPROCESS
  C:3982H         LINE#         75
  C:3982H         LINE#         76
  C:3982H         LINE#         77
  C:39DCH         LINE#         88
  C:39DCH         LINE#         89
  C:39DFH         LINE#         90
  C:39DFH         LINE#         91
  -------         ENDPROC       RAMCHECKPROCESS
  -------         PROC          _MEMORYSET
  X:0216H         SYMBOL        pt
  D:0005H         SYMBOL        setval
  D:0003H         SYMBOL        length
  -------         DO            
  D:0007H         SYMBOL        i
  -------         ENDDO         
  C:44D8H         LINE#         103
  C:44E0H         LINE#         104
  C:44E0H         LINE#         106
  C:44E7H         LINE#         107
  C:44E7H         LINE#         108
  C:44F4H         LINE#         109
  C:4502H         LINE#         110
  C:4505H         LINE#         111
  -------         ENDPROC       _MEMORYSET
  -------         PROC          _MEMORYCOPY
  X:0226H         SYMBOL        source
  D:0004H         SYMBOL        target
  D:0003H         SYMBOL        length
  -------         DO            
  D:0007H         SYMBOL        i
  -------         ENDDO         
  C:436BH         LINE#         123
  C:4373H         LINE#         124
  C:4373H         LINE#         126
  C:437AH         LINE#         127
  C:437AH         LINE#         128
  C:438BH         LINE#         129
  C:4390H         LINE#         130
  C:439EH         LINE#         131
  C:43A1H         LINE#         132
  -------         ENDPROC       _MEMORYCOPY
  -------         PROC          INTOIDLE
  C:4760H         LINE#         142
  C:4760H         LINE#         143
  C:4760H         LINE#         144
  C:4763H         LINE#         145
  C:4766H         LINE#         146
  C:4767H         LINE#         147
  C:4768H         LINE#         148
  C:4769H         LINE#         149
  C:476AH         LINE#         150
  C:476BH         LINE#         151
  -------         ENDPROC       INTOIDLE
  -------         PROC          INTOPD
  C:476CH         LINE#         160
  C:476CH         LINE#         161
BL51 BANKED LINKER/LOCATER V6.22                                                      12/10/2019  11:35:57  PAGE 57


  C:476CH         LINE#         162
  C:476FH         LINE#         163
  C:4772H         LINE#         164
  C:4773H         LINE#         165
  C:4774H         LINE#         166
  C:4775H         LINE#         167
  C:4776H         LINE#         168
  C:4777H         LINE#         169
  -------         ENDPROC       INTOPD
  -------         PROC          RESETINIT
  C:471AH         LINE#         179
  C:471AH         LINE#         180
  C:471AH         LINE#         181
  C:471DH         LINE#         182
  C:471FH         LINE#         183
  C:4721H         LINE#         184
  C:4723H         LINE#         186
  C:4725H         LINE#         187
  C:4727H         LINE#         188
  C:4729H         LINE#         190
  C:472CH         LINE#         191
  -------         ENDPROC       RESETINIT
  -------         ENDMOD        COMMON

  -------         MODULE        MEMORY
  C:0000H         SYMBOL        _ICE_DUMMY_
  D:0008H         PUBLIC        Timer3cnt
  X:02E0H         PUBLIC        uiVadcVmax
  D:0009H         PUBLIC        uiCellVmin
  B:0020H.2       PUBLIC        bOCRC_EN
  D:0080H         PUBLIC        P0
  X:02E2H         PUBLIC        ucWriteFlashCnt
  D:000BH         PUBLIC        uiCellVmax
  B:0023H.0       PUBLIC        bHV
  D:0022H         PUBLIC        uiBatStatus
  D:0090H         PUBLIC        P1
  X:006DH         PUBLIC        E2slOCCvol
  X:001EH         PUBLIC        E2ulCycleThreshold
  B:0026H.0       PUBLIC        bChkChgerFlg
  D:00A0H         PUBLIC        P2
  X:007DH         PUBLIC        E2slOCDvol
  B:0026H.1       PUBLIC        bBalancingFlg
  X:02E3H         PUBLIC        ulDsgCycleCount
  D:00B0H         PUBLIC        P3
  X:02E7H         PUBLIC        uiTempeMin
  X:02E9H         PUBLIC        ucLedFlickCnt
  B:0025H.6       PUBLIC        bFastDischarge
  D:00C0H         PUBLIC        P4
  B:0026H.2       PUBLIC        bCellOpenDecFlag
  D:000DH         PUBLIC        ucKeyValue
  D:0080H         PUBLIC        P5
  X:02EAH         PUBLIC        uiTempeMax
  X:02ECH         PUBLIC        uiRCDischarge
  X:02EEH         PUBLIC        ucIdleTimerCnt
  X:0497H         PUBLIC        ucUartSndLength
  X:02D8H         PUBLIC        ucOTCcnt
  X:02EFH         PUBLIC        ucFlashWrValid
BL51 BANKED LINKER/LOCATER V6.22                                                      12/10/2019  11:35:57  PAGE 58


  X:02DCH         PUBLIC        ucOTDcnt
  B:0026H.3       PUBLIC        bCADCFlg
  C:01FEH         PUBLIC        JumpISP
  X:0498H         PUBLIC        ucUartTimeoutCnt
  X:002AH         PUBLIC        E2ucDeleyLowPower
  X:02F0H         PUBLIC        ucSubClassID
  X:02F1H         PUBLIC        Info
  X:02DAH         PUBLIC        ucUTCcnt
  D:000EH         PUBLIC        ucCellNum
  B:0026H.4       PUBLIC        bPCSleepFlg
  B:0023H.1       PUBLIC        bUV
  X:02DEH         PUBLIC        ucUTDcnt
  B:0025H.5       PUBLIC        bMidDischarge
  B:0026H.5       PUBLIC        bPDFlg
  B:0020H.6       PUBLIC        bOCPM
  D:000FH         PUBLIC        ucKeyValueBK
  X:033BH         PUBLIC        ucRTCBKTime1
  B:0025H.2       PUBLIC        bCHGING
  B:0026H.6       PUBLIC        bRTCRdTime
  X:0400H         PUBLIC        ucUartBuf
  B:0026H.7       PUBLIC        bChkLoadFlg
  X:0087H         PUBLIC        E2ucDelayLoadR
  X:033CH         PUBLIC        slCadcCurBuf
  X:02D1H         PUBLIC        ucOVRcnt
  X:00B4H         PUBLIC        E2siTS1Offset
  X:0071H         PUBLIC        E2ucDelayOCC
  X:0024H         PUBLIC        E2uiLearnLowTemp
  X:037CH         PUBLIC        ucPDTimerCnt
  X:00B6H         PUBLIC        E2siTS2Offset
  X:0081H         PUBLIC        E2ucDelayOCD
  B:0027H.0       PUBLIC        bUartReadFlg
  B:0025H.4       PUBLIC        bSlowDischarge
  B:0021H.3       PUBLIC        bLEDNum0
  X:037DH         PUBLIC        uiRTCBKTime2
  B:0021H.4       PUBLIC        bLEDNum1
  B:0027H.1       PUBLIC        bVADCFlg
  X:00ABH         PUBLIC        E2uiAFEOVvol
  B:0027H.2       PUBLIC        bE2PErase
  D:0010H         PUBLIC        ucKeyValidCnt
  X:02D3H         PUBLIC        ucUVRcnt
  X:02D5H         PUBLIC        ucChgEndRcnt
  B:0025H.3       PUBLIC        bDSGING
  X:037FH         PUBLIC        uiE2PDataAddr
  X:008CH         PUBLIC        E2ucDSG1PWMRatioH
  X:0064H         PUBLIC        E2uiOVRvol
  I:0017H         PUBLIC        ucBalanceStep
  X:0053H         PUBLIC        E2ucDeviceChem
  X:002CH         PUBLIC        E2uiChgBKCur
  X:0381H         PUBLIC        ucExtcaliFlag
  I:0018H         PUBLIC        ucCellOpenDecCnt
  D:0011H         PUBLIC        ucKeyOldValue
  B:0022H.5       PUBLIC        bAFE_SC
  B:0025H.0       PUBLIC        bCHGMOS
  B:0020H.3       PUBLIC        bBAL_EN
  X:008BH         PUBLIC        E2ucDSG1PWMRatioL
  X:001AH         PUBLIC        E2ulFCC
  B:0027H.3       PUBLIC        bTimer1sFlg
BL51 BANKED LINKER/LOCATER V6.22                                                      12/10/2019  11:35:57  PAGE 59


  I:0019H         PUBLIC        ucCtoCnt
  B:0027H.4       PUBLIC        bBalanceFlg
  B:0027H.5       PUBLIC        bKeyFlg
  X:0076H         PUBLIC        E2uiUVRvol
  X:0047H         PUBLIC        E2ucDeviceName
  X:002FH         PUBLIC        ucRamCheckFlg1
  X:0382H         PUBLIC        AFESCONF2Bk
  X:0090H         PUBLIC        E2uiTempOTCR
  X:0061H         PUBLIC        ucRamCheckFlg2
  B:0027H.6       PUBLIC        bE2PProcessFlg
  X:009BH         PUBLIC        E2uiTempOTDR
  X:0073H         PUBLIC        ucRamCheckFlg3
  B:0027H.7       PUBLIC        bUartWriteFlg
  X:0383H         PUBLIC        ucTempeMiddle
  X:0384H         PUBLIC        ucLedChgCnt
  X:0088H         PUBLIC        ucRamCheckFlg4
  B:0028H.0       PUBLIC        bUartNeedAckFlg
  X:02D7H         PUBLIC        ucDsgEndRcnt
  X:008DH         PUBLIC        ucRamCheckFlg5
  X:0026H         PUBLIC        E2uiNearFCC
  B:0028H.1       PUBLIC        bBalanceStateFlg
  B:0021H.5       PUBLIC        bTempNum
  X:00B2H         PUBLIC        E2siCadcOffset
  X:0098H         PUBLIC        ucRamCheckFlg6
  X:006AH         PUBLIC        E2siChgEndCur
  X:0385H         PUBLIC        ucDsgingSpeed
  X:00A1H         PUBLIC        ucRamCheckFlg7
  X:0097H         PUBLIC        E2ucDelayTempR
  X:00A9H         PUBLIC        ucRamCheckFlg8
  X:0094H         PUBLIC        E2uiTempUTCR
  B:0020H.7       PUBLIC        bEnEEPRomBK
  X:00AEH         PUBLIC        E2uiVPackGain
  X:00ADH         PUBLIC        ucRamCheckFlg9
  X:00A4H         PUBLIC        E2uiBalanceVolDiff
  X:009FH         PUBLIC        E2uiTempUTDR
  I:001AH         PUBLIC        ucUpDataLimitTime
  B:0025H.1       PUBLIC        bDSGMOS
  B:0024H.7       PUBLIC        bCAL
  X:01FEH         PUBLIC        E2uiCheckFlag
  X:00A2H         PUBLIC        E2uiBalanceVol
  X:0082H         PUBLIC        E2slOCD2vol
  B:0022H.4       PUBLIC        bAFE_OV
  X:0386H         PUBLIC        slCadcCurrent
  X:0068H         PUBLIC        E2uiChgEndVol
  X:0035H         PUBLIC        E2ucMNFName
  X:038AH         PUBLIC        uiCHGValidTime
  D:0012H         PUBLIC        ucTimer3Cnt
  B:0023H.2       PUBLIC        bOCC
  B:0023H.3       PUBLIC        bOCD
  X:038CH         PUBLIC        slCadcCurAverage
  D:0020H         PUBLIC        uiPackConfig
  X:0067H         PUBLIC        E2ucDelayOVR
  X:002EH         PUBLIC        E2ucRTCBKDelay
  X:0390H         PUBLIC        ulFCCCount
  X:0496H         PUBLIC        ucUartBufPT
  X:0041H         PUBLIC        E2ulMNFDate
  X:0394H         PUBLIC        ucBalanceTimeCnt
BL51 BANKED LINKER/LOCATER V6.22                                                      12/10/2019  11:35:57  PAGE 60


  B:0020H.5       PUBLIC        bCTO_EN
  X:0395H         PUBLIC        slExtCur
  X:0399H         PUBLIC        ucChgerRCnt
  X:0002H         PUBLIC        E2uiVOC
  B:0028H.2       PUBLIC        bBalanceOddFlg
  X:039AH         PUBLIC        ucBLEFlickCnt
  X:0079H         PUBLIC        E2ucDelayUVR
  X:00B8H         PUBLIC        E2ucCalibrated
  X:007AH         PUBLIC        E2uiDsgEndVol
  X:039BH         PUBLIC        uiRCCharge
  X:00B0H         PUBLIC        E2siCadcGain
  X:00BAH         PUBLIC        Reserved
  X:02D0H         PUBLIC        ucOVcnt
  X:039DH         PUBLIC        uiBalanceChannel
  B:0021H.0       PUBLIC        bCellNum1
  B:0022H.6       PUBLIC        bCTO
  B:0022H.0       PUBLIC        bOTC
  B:0021H.1       PUBLIC        bCellNum2
  B:0028H.3       PUBLIC        bChgerConectFlg
  B:0022H.1       PUBLIC        bOTD
  B:0021H.2       PUBLIC        bCellNum3
  B:0028H.4       PUBLIC        bTimer25msFlg
  X:039FH         PUBLIC        AFE
  X:02D2H         PUBLIC        ucUVcnt
  X:0086H         PUBLIC        E2ucDelayOCD2
  X:02D4H         PUBLIC        ucChgEndcnt
  B:0028H.5       PUBLIC        bLEDOpen
  X:00A6H         PUBLIC        E2siBalCurrent
  B:0024H.2       PUBLIC        bVDQ
  B:0021H.6       PUBLIC        bCHGEnd
  X:03BDH         PUBLIC        uiOCCRcnt
  B:0028H.6       PUBLIC        bDataFlashFail
  B:0022H.2       PUBLIC        bUTC
  X:0062H         PUBLIC        E2uiOVvol
  X:0028H         PUBLIC        E2siDfilterCur
  X:03BFH         PUBLIC        uiOCDRcnt
  X:03C1H         PUBLIC        ucExtcaliSwitch1
  B:0022H.3       PUBLIC        bUTD
  B:0028H.7       PUBLIC        bUpdataFlashFlg
  X:0000H         PUBLIC        E2uiPackConfigMap
  B:0029H.0       PUBLIC        bChkChgerRFlg
  B:0029H.1       PUBLIC        bUartSndAckFlg
  X:03C2H         PUBLIC        ucLoadRCnt
  X:0074H         PUBLIC        E2uiUVvol
  X:008EH         PUBLIC        E2uiTempOTC
  X:0022H         PUBLIC        E2uiCycleCount
  B:0029H.2       PUBLIC        bUVBkFlg
  X:0099H         PUBLIC        E2uiTempOTD
  B:0029H.3       PUBLIC        bCTOValidFlg
  X:00B9H         PUBLIC        ucRamCheckFlg10
  X:02D6H         PUBLIC        ucDsgEndcnt
  X:02D9H         PUBLIC        ucOTCRcnt
  B:0021H.7       PUBLIC        bDSGEnd
  X:02DDH         PUBLIC        ucOTDRcnt
  X:0096H         PUBLIC        E2ucDelayTemp
  X:03C3H         PUBLIC        uiExtTemp1
  X:03C5H         PUBLIC        ucResetFlag
BL51 BANKED LINKER/LOCATER V6.22                                                      12/10/2019  11:35:57  PAGE 61


  D:0013H         PUBLIC        uiVoltageMin
  X:0092H         PUBLIC        E2uiTempUTC
  X:03C6H         PUBLIC        uiExtTemp2
  X:03C8H         PUBLIC        REG
  X:009DH         PUBLIC        E2uiTempUTD
  X:0034H         PUBLIC        E2ucID
  B:0029H.4       PUBLIC        bE2PRdData
  B:0029H.5       PUBLIC        bE2PBKChgStart
  X:00AAH         PUBLIC        E2ucAFEProtectConfig
  X:02DBH         PUBLIC        ucUTCRcnt
  B:0029H.6       PUBLIC        bLoadConectFlg
  X:02DFH         PUBLIC        ucUTDRcnt
  X:03D6H         PUBLIC        ucRTCBuf
  X:0032H         PUBLIC        E2uiHWVersion
  B:0029H.7       PUBLIC        bE2RTCON
  B:002AH.0       PUBLIC        bE2PBKRtc
  X:005FH         PUBLIC        E2uiChemID
  X:002BH         PUBLIC        E2ucChgBKDelay
  B:002AH.1       PUBLIC        bE2PBKDsgEndValid
  B:002AH.2       PUBLIC        bLEDChgFlg
  X:03DDH         PUBLIC        ucLEDTimeCnt
  X:03DEH         PUBLIC        RTC
  X:0066H         PUBLIC        E2ucDelayOV
  D:0024H         PUBLIC        uiPackStatus
  B:002AH.3       PUBLIC        bBLEOPEN
  B:002AH.4       PUBLIC        bISPFlg
  B:0024H.0       PUBLIC        bFC
  B:0020H.4       PUBLIC        bPF_EN
  X:0072H         PUBLIC        E2ucDelayOCCR
  X:0016H         PUBLIC        E2ulDesignCapacity
  X:03E5H         PUBLIC        ucChgerCnt
  B:0024H.1       PUBLIC        bFD
  B:0020H.0       PUBLIC        bSC_EN
  X:0045H         PUBLIC        E2uiSerialNum
  X:0030H         PUBLIC        E2uiSWVersion
  X:03E6H         PUBLIC        ucCadcCnt
  X:03E7H         PUBLIC        ulExtVPack
  B:002AH.5       PUBLIC        bAlarmFlg
  B:002AH.6       PUBLIC        bCalibrationFlg
  X:00A8H         PUBLIC        E2ucBalanceDelay
  X:0089H         PUBLIC        E2uiDSG1PWMFreq
  B:002AH.7       PUBLIC        bWakeupFlg
  X:0078H         PUBLIC        E2ucDelayUV
  X:006CH         PUBLIC        E2ucDelayChgEnd
  B:002BH.0       PUBLIC        bE2PBKDsgEnd
  B:002BH.1       PUBLIC        bE2PBKChgStop
  B:002BH.2       PUBLIC        bChgToDsgFlg
  B:002BH.3       PUBLIC        bDsgToChgFlg
  X:03E9H         PUBLIC        ucExtRTC
  X:03EFH         PUBLIC        ucOCCcnt
  D:0015H         PUBLIC        ucKeyInvalidCnt
  X:03F0H         PUBLIC        ucOCDcnt
  I:00A0H         PUBLIC        STACK
  D:0016H         PUBLIC        ucCellNumOffset
  B:0020H.1       PUBLIC        bOV_EN
  X:007CH         PUBLIC        E2ucDelayDsgEnd
  X:03F1H         PUBLIC        uiVadcVmin
BL51 BANKED LINKER/LOCATER V6.22                                                      12/10/2019  11:35:57  PAGE 62


  B:002BH.4       PUBLIC        bIdleFlg
  B:002BH.5       PUBLIC        bWriteFlashFlg
  -------         ENDMOD        MEMORY

  -------         MODULE        ?C_STARTUP
  C:46F2H         SEGMENT       ?C_C51STARTUP
  C:0000H         PUBLIC        ?C_STARTUP
  N:00B2H         SYMBOL        CLKCON
  D:0081H         SYMBOL        SP
  C:46F2H         SYMBOL        STARTUP1
  C:0000H         LINE#         13
  C:46F2H         LINE#         20
  C:46F5H         LINE#         21
  C:46F8H         LINE#         22
  C:46F9H         LINE#         23
  C:46FAH         LINE#         24
  C:46FBH         LINE#         25
  C:46FCH         LINE#         26
  C:46FDH         LINE#         27
  C:46FEH         LINE#         28
  C:46FFH         LINE#         29
  C:4700H         LINE#         30
  C:4703H         LINE#         31
  -------         ENDMOD        ?C_STARTUP

  -------         MODULE        AFEMTP
  C:0000H         SYMBOL        _ICE_DUMMY_
  D:0080H         PUBLIC        P0
  D:0090H         PUBLIC        P1
  D:00A0H         PUBLIC        P2
  D:00B0H         PUBLIC        P3
  D:00C0H         PUBLIC        P4
  D:0080H         PUBLIC        P5
  C:3E0FH         PUBLIC        _TwiWriteAFE
  C:3E5AH         PUBLIC        _TWIReadAFE
  C:440CH         PUBLIC        ClearAFEFlg
  C:4473H         PUBLIC        InitAFE
  -------         PROC          _TWIWRITEAFE
  X:0209H         SYMBOL        WrAddr
  X:020AH         SYMBOL        WrBuf
  -------         DO            
  B:002BH.7       SYMBOL        result
  X:020CH         SYMBOL        times
  -------         ENDDO         
  C:3E0FH         LINE#         19
  C:3E1AH         LINE#         20
  C:3E1AH         LINE#         21
  C:3E1CH         LINE#         22
  C:3E1FH         LINE#         24
  C:3E2CH         LINE#         25
  C:3E2CH         LINE#         26
  C:3E49H         LINE#         27
  C:3E4CH         LINE#         28
  C:3E4CH         LINE#         29
  C:3E4EH         LINE#         30
  C:3E50H         LINE#         32
  C:3E50H         LINE#         33
BL51 BANKED LINKER/LOCATER V6.22                                                      12/10/2019  11:35:57  PAGE 63


  C:3E55H         LINE#         34
  C:3E55H         LINE#         35
  C:3E57H         LINE#         37
  C:3E59H         LINE#         38
  -------         ENDPROC       _TWIWRITEAFE
  -------         PROC          _TWIREADAFE
  X:0209H         SYMBOL        RdAddr
  X:020AH         SYMBOL        RdBuf
  -------         DO            
  B:002CH.0       SYMBOL        result
  X:020CH         SYMBOL        times
  -------         ENDDO         
  C:3E5AH         LINE#         48
  C:3E65H         LINE#         49
  C:3E65H         LINE#         50
  C:3E67H         LINE#         51
  C:3E6AH         LINE#         53
  C:3E77H         LINE#         54
  C:3E77H         LINE#         55
  C:3E94H         LINE#         56
  C:3E97H         LINE#         57
  C:3E97H         LINE#         58
  C:3E99H         LINE#         59
  C:3E9BH         LINE#         61
  C:3E9BH         LINE#         62
  C:3EA0H         LINE#         63
  C:3EA0H         LINE#         64
  C:3EA2H         LINE#         66
  C:3EA4H         LINE#         67
  -------         ENDPROC       _TWIREADAFE
  -------         PROC          CLEARAFEFLG
  C:440CH         LINE#         77
  C:440CH         LINE#         78
  C:440CH         LINE#         79
  C:4415H         LINE#         80
  C:441FH         LINE#         81
  C:441FH         LINE#         82
  C:4426H         LINE#         83
  C:442FH         LINE#         84
  C:4436H         LINE#         85
  C:443FH         LINE#         86
  C:443FH         LINE#         87
  -------         ENDPROC       CLEARAFEFLG
  -------         PROC          INITAFE
  -------         DO            
  X:0207H         SYMBOL        i
  B:002BH.6       SYMBOL        result
  -------         ENDDO         
  C:4473H         LINE#         97
  C:4473H         LINE#         98
  C:4473H         LINE#         100
  C:4475H         LINE#         102
  C:447AH         LINE#         103
  C:447AH         LINE#         104
  C:4493H         LINE#         105
  C:4493H         LINE#         106
  C:4495H         LINE#         107
BL51 BANKED LINKER/LOCATER V6.22                                                      12/10/2019  11:35:57  PAGE 64


  C:4497H         LINE#         108
  C:4497H         LINE#         109
  C:44A3H         LINE#         111
  C:44A5H         LINE#         112
  -------         ENDPROC       INITAFE
  -------         ENDMOD        AFEMTP

  -------         MODULE        BALANCE
  C:0000H         SYMBOL        _ICE_DUMMY_
  D:0080H         PUBLIC        P0
  D:0090H         PUBLIC        P1
  D:00A0H         PUBLIC        P2
  D:00B0H         PUBLIC        P3
  D:00C0H         PUBLIC        P4
  D:0080H         PUBLIC        P5
  C:4626H         PUBLIC        CloseBal
  C:42BFH         PUBLIC        _OpenBal
  C:44A6H         PUBLIC        CheckCtoVol
  C:1C57H         PUBLIC        BalManage
  C:2D03H         PUBLIC        BalProcess
  C:002EH         PUBLIC        CellOpenProcess
  -------         PROC          BALMANAGE
  -------         DO            
  D:0005H         SYMBOL        i
  -------         ENDDO         
  C:1C57H         LINE#         21
  C:1C57H         LINE#         22
  C:1C57H         LINE#         25
  C:1C63H         LINE#         26
  C:1C63H         LINE#         27
  C:1C69H         LINE#         28
  C:1C69H         LINE#         29
  C:1C70H         LINE#         30
  C:1CA0H         LINE#         33
  C:1CA0H         LINE#         34
  C:1CA2H         LINE#         35
  C:1CA7H         LINE#         36
  C:1CA8H         LINE#         38
  C:1CA8H         LINE#         39
  C:1CFAH         LINE#         40
  C:1CFAH         LINE#         41
  C:1CFDH         LINE#         42
  C:1CFDH         LINE#         43
  C:1D03H         LINE#         44
  C:1D03H         LINE#         45
  C:1D1FH         LINE#         46
  C:1D1FH         LINE#         47
  C:1D35H         LINE#         48
  C:1D35H         LINE#         49
  C:1D7AH         LINE#         50
  C:1D7AH         LINE#         51
  C:1D95H         LINE#         52
  C:1D95H         LINE#         53
  C:1D98H         LINE#         54
  C:1D9AH         LINE#         55
  C:1D9AH         LINE#         56
  C:1D9BH         LINE#         58
BL51 BANKED LINKER/LOCATER V6.22                                                      12/10/2019  11:35:57  PAGE 65


  C:1D9BH         LINE#         59
  C:1D9DH         LINE#         60
  C:1DA2H         LINE#         61
  C:1DA2H         LINE#         62
  C:1DA2H         LINE#         63
  C:1DA2H         LINE#         64
  C:1DA2H         LINE#         65
  -------         ENDPROC       BALMANAGE
  -------         PROC          _OPENBAL
  X:0206H         SYMBOL        BalChTemp
  C:42BFH         LINE#         74
  C:42C7H         LINE#         75
  C:42C7H         LINE#         76
  C:42DBH         LINE#         77
  C:42E4H         LINE#         78
  C:42EEH         LINE#         79
  C:42F7H         LINE#         80
  C:42F9H         LINE#         81
  -------         ENDPROC       _OPENBAL
  -------         PROC          CLOSEBAL
  C:4626H         LINE#         83
  C:4626H         LINE#         84
  C:4626H         LINE#         85
  C:4629H         LINE#         86
  C:4629H         LINE#         87
  C:462BH         LINE#         88
  C:4630H         LINE#         89
  C:4639H         LINE#         90
  C:463EH         LINE#         91
  C:4647H         LINE#         92
  C:4647H         LINE#         93
  -------         ENDPROC       CLOSEBAL
  -------         PROC          CHECKCTOVOL
  -------         DO            
  B:002BH.6       SYMBOL        bResult
  -------         ENDDO         
  C:44A6H         LINE#         103
  C:44A6H         LINE#         104
  C:44A6H         LINE#         105
  C:44A8H         LINE#         107
  C:44ABH         LINE#         108
  C:44ABH         LINE#         109
  C:44AEH         LINE#         110
  C:44AEH         LINE#         111
  C:44B1H         LINE#         112
  C:44B1H         LINE#         113
  C:44C0H         LINE#         114
  C:44C0H         LINE#         115
  C:44C2H         LINE#         116
  C:44CBH         LINE#         117
  C:44CBH         LINE#         118
  C:44CDH         LINE#         119
  C:44CDH         LINE#         120
  C:44CFH         LINE#         122
  C:44CFH         LINE#         123
  C:44D1H         LINE#         124
  C:44D5H         LINE#         125
BL51 BANKED LINKER/LOCATER V6.22                                                      12/10/2019  11:35:57  PAGE 66


  C:44D5H         LINE#         126
  C:44D5H         LINE#         127
  C:44D5H         LINE#         144
  C:44D5H         LINE#         146
  C:44D7H         LINE#         147
  -------         ENDPROC       CHECKCTOVOL
  -------         PROC          BALPROCESS
  -------         DO            
  X:0204H         SYMBOL        BalChTemp
  -------         ENDDO         
  C:2D03H         LINE#         160
  C:2D03H         LINE#         161
  C:2D03H         LINE#         166
  C:2D21H         LINE#         167
  C:2D21H         LINE#         168
  C:2D23H         LINE#         169
  C:2D23H         LINE#         171
  C:2D37H         LINE#         172
  C:2D37H         LINE#         173
  C:2D37H         LINE#         174
  C:2D3DH         LINE#         175
  C:2D3DH         LINE#         176
  C:2D40H         LINE#         177
  C:2D40H         LINE#         178
  C:2D53H         LINE#         179
  C:2D55H         LINE#         181
  C:2D55H         LINE#         182
  C:2D68H         LINE#         183
  C:2D68H         LINE#         184
  C:2D73H         LINE#         185
  C:2D77H         LINE#         186
  C:2D79H         LINE#         187
  C:2D79H         LINE#         188
  C:2D7AH         LINE#         190
  C:2D7AH         LINE#         191
  C:2D7EH         LINE#         192
  C:2D7FH         LINE#         194
  C:2D7FH         LINE#         195
  C:2D84H         LINE#         196
  C:2D84H         LINE#         197
  C:2D87H         LINE#         198
  C:2D8BH         LINE#         199
  C:2D8DH         LINE#         200
  C:2D8DH         LINE#         201
  C:2D8EH         LINE#         203
  C:2D8EH         LINE#         204
  C:2D93H         LINE#         205
  C:2D93H         LINE#         206
  C:2D97H         LINE#         207
  C:2D98H         LINE#         209
  C:2D98H         LINE#         210
  C:2D9CH         LINE#         211
  C:2D9EH         LINE#         212
  C:2D9EH         LINE#         213
  C:2D9FH         LINE#         215
  C:2D9FH         LINE#         216
  C:2DA3H         LINE#         217
BL51 BANKED LINKER/LOCATER V6.22                                                      12/10/2019  11:35:57  PAGE 67


  C:2DA5H         LINE#         218
  C:2DA7H         LINE#         219
  C:2DA9H         LINE#         220
  C:2DA9H         LINE#         221
  C:2DA9H         LINE#         222
  -------         ENDPROC       BALPROCESS
  -------         PROC          CELLOPENPROCESS
  C:002EH         LINE#         231
  C:002EH         LINE#         232
  C:002EH         LINE#         236
  C:0034H         LINE#         238
  C:0034H         LINE#         239
  C:003DH         LINE#         240
  C:003DH         LINE#         241
  C:003FH         LINE#         242
  C:0042H         LINE#         243
  C:0042H         LINE#         244
  C:0044H         LINE#         245
  C:0046H         LINE#         246
  C:0050H         LINE#         247
  C:0050H         LINE#         248
  C:0050H         LINE#         249
  C:0050H         LINE#         250
  -------         ENDPROC       CELLOPENPROCESS
  -------         ENDMOD        BALANCE

  -------         MODULE        CALIBRATE
  C:0000H         SYMBOL        _ICE_DUMMY_
  C:2EF0H         PUBLIC        CaliVoltageSub
  D:0080H         PUBLIC        P0
  C:3A3BH         PUBLIC        CaliTS1Sub
  D:0090H         PUBLIC        P1
  C:3A92H         PUBLIC        CaliTS2Sub
  D:00A0H         PUBLIC        P2
  D:00B0H         PUBLIC        P3
  D:00C0H         PUBLIC        P4
  D:0080H         PUBLIC        P5
  C:2F8DH         PUBLIC        CaliCurrentSub
  D:0099H         PUBLIC        SBUF
  C:356FH         PUBLIC        CaliCurOffsetSub
  C:2826H         PUBLIC        CaliProcess
  B:0098H.4       PUBLIC        REN
  C:4281H         PUBLIC        CaliRTCTime
  -------         PROC          CALIVOLTAGESUB
  -------         DO            
  X:0204H         SYMBOL        i
  X:0205H         SYMBOL        VPackTemp
  B:002BH.7       SYMBOL        result
  -------         ENDDO         
  C:2EF0H         LINE#         21
  C:2EF0H         LINE#         22
  C:2EF0H         LINE#         24
  C:2EF7H         LINE#         25
  C:2EF9H         LINE#         27
  C:2F16H         LINE#         28
  C:2F16H         LINE#         29
  C:2F2FH         LINE#         30
BL51 BANKED LINKER/LOCATER V6.22                                                      12/10/2019  11:35:57  PAGE 68


  C:2F4FH         LINE#         31
  C:2F57H         LINE#         32
  C:2F5AH         LINE#         33
  C:2F5AH         LINE#         34
  C:2F8AH         LINE#         35
  C:2F8AH         LINE#         37
  C:2F8CH         LINE#         38
  -------         ENDPROC       CALIVOLTAGESUB
  -------         PROC          CALICURRENTSUB
  -------         DO            
  X:0204H         SYMBOL        TempCur1
  X:0206H         SYMBOL        TempCur2
  D:0006H         SYMBOL        TempGain
  B:002BH.7       SYMBOL        result
  -------         ENDDO         
  C:2F8DH         LINE#         48
  C:2F8DH         LINE#         49
  C:2F8DH         LINE#         51
  C:2F8FH         LINE#         53
  C:2F9AH         LINE#         54
  C:2F9FH         LINE#         55
  C:2FAAH         LINE#         57
  C:2FADH         LINE#         58
  C:2FADH         LINE#         59
  C:2FD0H         LINE#         60
  C:2FD4H         LINE#         61
  C:2FD4H         LINE#         62
  C:2FDEH         LINE#         63
  C:2FDEH         LINE#         65
  C:3014H         LINE#         66
  C:3018H         LINE#         67
  C:3018H         LINE#         68
  C:3020H         LINE#         69
  C:3020H         LINE#         70
  C:3020H         LINE#         72
  C:3022H         LINE#         73
  -------         ENDPROC       CALICURRENTSUB
  -------         PROC          CALICUROFFSETSUB
  -------         DO            
  X:0204H         SYMBOL        TempCur1
  X:0206H         SYMBOL        TempCur2
  B:002BH.7       SYMBOL        result
  -------         ENDDO         
  C:356FH         LINE#         83
  C:356FH         LINE#         84
  C:356FH         LINE#         86
  C:3571H         LINE#         88
  C:357CH         LINE#         89
  C:3581H         LINE#         90
  C:358CH         LINE#         92
  C:358FH         LINE#         93
  C:358FH         LINE#         94
  C:359BH         LINE#         95
  C:359BH         LINE#         96
  C:35A4H         LINE#         97
  C:35A4H         LINE#         98
  C:35B0H         LINE#         99
BL51 BANKED LINKER/LOCATER V6.22                                                      12/10/2019  11:35:57  PAGE 69


  C:35B0H         LINE#         100
  C:35B9H         LINE#         101
  C:35B9H         LINE#         102
  C:35DCH         LINE#         103
  C:35E4H         LINE#         104
  C:35E4H         LINE#         106
  C:35E6H         LINE#         107
  -------         ENDPROC       CALICUROFFSETSUB
  -------         PROC          CALITS1SUB
  -------         DO            
  D:0006H         SYMBOL        Tempe
  B:002BH.7       SYMBOL        result
  -------         ENDDO         
  C:3A3BH         LINE#         117
  C:3A3BH         LINE#         118
  C:3A3BH         LINE#         120
  C:3A3DH         LINE#         122
  C:3A48H         LINE#         124
  C:3A4BH         LINE#         125
  C:3A4BH         LINE#         126
  C:3A63H         LINE#         128
  C:3A87H         LINE#         129
  C:3A87H         LINE#         130
  C:3A8FH         LINE#         131
  C:3A8FH         LINE#         133
  C:3A8FH         LINE#         135
  C:3A91H         LINE#         136
  -------         ENDPROC       CALITS1SUB
  -------         PROC          CALITS2SUB
  -------         DO            
  D:0006H         SYMBOL        Tempe
  B:002BH.7       SYMBOL        result
  -------         ENDDO         
  C:3A92H         LINE#         146
  C:3A92H         LINE#         147
  C:3A92H         LINE#         149
  C:3A94H         LINE#         151
  C:3A9FH         LINE#         153
  C:3AA2H         LINE#         154
  C:3AA2H         LINE#         155
  C:3ABAH         LINE#         157
  C:3ADEH         LINE#         158
  C:3ADEH         LINE#         159
  C:3AE6H         LINE#         160
  C:3AE6H         LINE#         161
  C:3AE6H         LINE#         163
  C:3AE8H         LINE#         164
  -------         ENDPROC       CALITS2SUB
  -------         PROC          CALIRTCTIME
  -------         DO            
  B:002BH.7       SYMBOL        result
  -------         ENDDO         
  C:4281H         LINE#         174
  C:4281H         LINE#         175
  C:4281H         LINE#         176
  C:4283H         LINE#         178
  C:428BH         LINE#         179
BL51 BANKED LINKER/LOCATER V6.22                                                      12/10/2019  11:35:57  PAGE 70


  C:4293H         LINE#         180
  C:429BH         LINE#         181
  C:42A3H         LINE#         182
  C:42ABH         LINE#         183
  C:42B3H         LINE#         185
  C:42B8H         LINE#         187
  C:42BAH         LINE#         188
  C:42BCH         LINE#         190
  C:42BEH         LINE#         191
  -------         ENDPROC       CALIRTCTIME
  -------         PROC          CALIPROCESS
  -------         DO            
  B:002BH.6       SYMBOL        result
  C:28C7H         SYMBOL        CaliAllOk
  -------         ENDDO         
  C:2826H         LINE#         201
  C:2826H         LINE#         202
  C:2826H         LINE#         203
  C:2828H         LINE#         205
  C:282FH         LINE#         206
  C:282FH         LINE#         207
  C:2834H         LINE#         208
  C:2834H         LINE#         209
  C:2836H         LINE#         210
  C:2838H         LINE#         212
  C:2838H         LINE#         213
  C:283FH         LINE#         214
  C:283FH         LINE#         215
  C:283FH         LINE#         217
  C:2846H         LINE#         218
  C:2846H         LINE#         219
  C:284BH         LINE#         220
  C:284BH         LINE#         221
  C:284DH         LINE#         222
  C:284FH         LINE#         224
  C:284FH         LINE#         225
  C:2856H         LINE#         226
  C:2856H         LINE#         227
  C:2856H         LINE#         229
  C:285DH         LINE#         230
  C:285DH         LINE#         231
  C:2862H         LINE#         232
  C:2862H         LINE#         233
  C:2864H         LINE#         234
  C:2866H         LINE#         236
  C:2866H         LINE#         237
  C:286DH         LINE#         238
  C:286DH         LINE#         239
  C:286DH         LINE#         241
  C:2874H         LINE#         242
  C:2874H         LINE#         243
  C:2879H         LINE#         244
  C:2879H         LINE#         245
  C:287BH         LINE#         246
  C:287DH         LINE#         248
  C:287DH         LINE#         249
  C:2884H         LINE#         250
BL51 BANKED LINKER/LOCATER V6.22                                                      12/10/2019  11:35:57  PAGE 71


  C:2884H         LINE#         251
  C:2884H         LINE#         253
  C:288BH         LINE#         254
  C:288BH         LINE#         255
  C:2890H         LINE#         256
  C:2890H         LINE#         257
  C:2892H         LINE#         258
  C:2894H         LINE#         260
  C:2894H         LINE#         261
  C:289BH         LINE#         262
  C:289BH         LINE#         263
  C:289BH         LINE#         278
  C:28A2H         LINE#         279
  C:28A2H         LINE#         280
  C:28A7H         LINE#         281
  C:28A7H         LINE#         282
  C:28A9H         LINE#         283
  C:28ABH         LINE#         285
  C:28ABH         LINE#         286
  C:28B2H         LINE#         287
  C:28B2H         LINE#         288
  C:28B2H         LINE#         290
  C:28B5H         LINE#         291
  C:28B5H         LINE#         292
  C:28BCH         LINE#         293
  C:28BCH         LINE#         294
  C:28BEH         LINE#         295
  C:28BEH         LINE#         296
  C:28C0H         LINE#         297
  C:28C7H         LINE#         298
  C:28C7H         LINE#         299
  C:28C7H         LINE#         300
  C:28CCH         LINE#         301
  C:28CEH         LINE#         302
  C:28D4H         LINE#         303
  C:28D6H         LINE#         304
  C:28D6H         LINE#         306
  C:28DBH         LINE#         307
  C:28DDH         LINE#         310
  C:28E0H         LINE#         311
  C:28E0H         LINE#         312
  C:28E5H         LINE#         313
  C:28E6H         LINE#         315
  C:28E6H         LINE#         316
  C:28EBH         LINE#         317
  C:28EBH         LINE#         318
  -------         ENDPROC       CALIPROCESS
  -------         ENDMOD        CALIBRATE

  -------         MODULE        CALCULATE
  C:0000H         SYMBOL        _ICE_DUMMY_
  D:0080H         PUBLIC        P0
  D:0090H         PUBLIC        P1
  C:2593H         PUBLIC        CalcuTemperature
  D:00A0H         PUBLIC        P2
  D:00B0H         PUBLIC        P3
  C:0C5CH         PUBLIC        _CalcuTemp
BL51 BANKED LINKER/LOCATER V6.22                                                      12/10/2019  11:35:57  PAGE 72


  D:00C0H         PUBLIC        P4
  D:0080H         PUBLIC        P5
  D:00A8H         PUBLIC        IEN0
  C:1EECH         PUBLIC        NTC103AT
  C:4778H         PUBLIC        BatteryInfoManage
  C:1830H         PUBLIC        CalcuVoltage
  C:3734H         PUBLIC        GetAFEData
  -------         PROC          _CALCUTEMP
  D:0082H         SYMBOL        getdata
  -------         DO            
  X:0204H         SYMBOL        i
  X:0205H         SYMBOL        Temperature
  X:0207H         SYMBOL        tempcalcu
  -------         ENDDO         
  C:0C5CH         LINE#         32
  C:0C60H         LINE#         33
  C:0C60H         LINE#         38
  C:0C8EH         LINE#         39
  C:0CA8H         LINE#         40
  C:0CA8H         LINE#         41
  C:0CCAH         LINE#         42
  C:0CCAH         LINE#         44
  C:0CEBH         LINE#         45
  C:0CEBH         LINE#         46
  C:0CF5H         LINE#         47
  C:0CF8H         LINE#         48
  C:0D19H         LINE#         49
  C:0D19H         LINE#         50
  C:0D23H         LINE#         51
  C:0D26H         LINE#         53
  C:0D26H         LINE#         54
  C:0D2EH         LINE#         55
  C:0D5AH         LINE#         56
  C:0D5AH         LINE#         57
  C:0D70H         LINE#         58
  C:0D70H         LINE#         59
  C:0D9DH         LINE#         60
  C:0D9DH         LINE#         61
  C:0D9DH         LINE#         62
  C:0D9DH         LINE#         63
  C:0DA5H         LINE#         64
  C:0DA5H         LINE#         66
  C:0DA5H         LINE#         67
  C:0DB8H         LINE#         68
  C:0DB8H         LINE#         69
  C:0DE5H         LINE#         70
  C:0DE5H         LINE#         71
  C:0DE5H         LINE#         72
  C:0DE5H         LINE#         73
  C:0DEDH         LINE#         74
  C:0DF3H         LINE#         75
  C:0DF3H         LINE#         76
  C:0DFBH         LINE#         78
  C:0EA9H         LINE#         79
  C:0EA9H         LINE#         80
  C:0EB1H         LINE#         81
  -------         ENDPROC       _CALCUTEMP
BL51 BANKED LINKER/LOCATER V6.22                                                      12/10/2019  11:35:57  PAGE 73


  -------         PROC          CALCUTEMPERATURE
  -------         DO            
  D:0006H         SYMBOL        TempeData
  -------         ENDDO         
  C:2593H         LINE#         91
  C:2593H         LINE#         92
  C:2593H         LINE#         95
  C:25AAH         LINE#         96
  C:25ADH         LINE#         97
  C:25B4H         LINE#         98
  C:25B7H         LINE#         100
  C:25D7H         LINE#         101
  C:25DAH         LINE#         102
  C:25E1H         LINE#         103
  C:25E4H         LINE#         105
  C:25EBH         LINE#         106
  C:25EBH         LINE#         107
  C:260BH         LINE#         108
  C:260EH         LINE#         109
  C:2615H         LINE#         110
  C:2618H         LINE#         111
  C:2618H         LINE#         113
  C:2628H         LINE#         114
  C:2630H         LINE#         115
  C:2633H         LINE#         116
  C:2633H         LINE#         117
  C:264AH         LINE#         118
  C:264DH         LINE#         119
  C:2654H         LINE#         120
  C:2657H         LINE#         122
  C:2664H         LINE#         123
  C:2664H         LINE#         124
  C:2669H         LINE#         125
  C:266AH         LINE#         127
  C:266AH         LINE#         128
  C:2672H         LINE#         129
  C:2672H         LINE#         130
  C:2672H         LINE#         131
  -------         ENDPROC       CALCUTEMPERATURE
  -------         PROC          CALCUVOLTAGE
  -------         DO            
  X:0204H         SYMBOL        i
  X:0205H         SYMBOL        TempPackVol
  X:0209H         SYMBOL        TempCellVol
  -------         ENDDO         
  C:1830H         LINE#         143
  C:1830H         LINE#         144
  C:1830H         LINE#         146
  C:1844H         LINE#         147
  C:184BH         LINE#         148
  C:1855H         LINE#         150
  C:1876H         LINE#         151
  C:1876H         LINE#         152
  C:18ADH         LINE#         154
  C:18CCH         LINE#         155
  C:18CCH         LINE#         156
  C:18DFH         LINE#         157
BL51 BANKED LINKER/LOCATER V6.22                                                      12/10/2019  11:35:57  PAGE 74


  C:18DFH         LINE#         158
  C:18FEH         LINE#         159
  C:18FEH         LINE#         160
  C:1911H         LINE#         161
  C:1911H         LINE#         163
  C:1914H         LINE#         164
  C:1914H         LINE#         165
  C:1917H         LINE#         166
  C:1937H         LINE#         167
  C:193AH         LINE#         168
  C:1966H         LINE#         169
  C:1966H         LINE#         170
  C:196FH         LINE#         172
  C:1972H         LINE#         173
  C:1972H         LINE#         174
  C:197CH         LINE#         175
  C:1986H         LINE#         177
  C:1989H         LINE#         178
  C:199CH         LINE#         179
  C:199FH         LINE#         180
  C:199FH         LINE#         181
  -------         ENDPROC       CALCUVOLTAGE
  -------         PROC          GETAFEDATA
  -------         DO            
  X:0204H         SYMBOL        i
  B:002BH.6       SYMBOL        result
  -------         ENDDO         
  C:3734H         LINE#         191
  C:3734H         LINE#         192
  C:3734H         LINE#         194
  C:3736H         LINE#         196
  C:3753H         LINE#         197
  C:3753H         LINE#         198
  C:376CH         LINE#         199
  C:376CH         LINE#         200
  C:376EH         LINE#         201
  C:3771H         LINE#         202
  C:3771H         LINE#         203
  C:3779H         LINE#         204
  C:3784H         LINE#         205
  C:3784H         LINE#         206
  C:3786H         LINE#         207
  C:3789H         LINE#         208
  C:3789H         LINE#         209
  C:3794H         LINE#         210
  C:3794H         LINE#         211
  C:3796H         LINE#         212
  C:3799H         LINE#         213
  C:3799H         LINE#         215
  C:379BH         LINE#         216
  -------         ENDPROC       GETAFEDATA
  -------         PROC          BATTERYINFOMANAGE
  C:4778H         LINE#         226
  C:4778H         LINE#         227
  C:4778H         LINE#         228
  C:477DH         LINE#         229
  C:477DH         LINE#         230
BL51 BANKED LINKER/LOCATER V6.22                                                      12/10/2019  11:35:57  PAGE 75


  C:4780H         LINE#         232
  C:4783H         LINE#         233
  C:4783H         LINE#         234
  -------         ENDPROC       BATTERYINFOMANAGE
  -------         ENDMOD        CALCULATE

  -------         MODULE        GASGAUGE
  C:0000H         SYMBOL        _ICE_DUMMY_
  D:0080H         PUBLIC        P0
  D:0090H         PUBLIC        P1
  D:00A0H         PUBLIC        P2
  D:00B0H         PUBLIC        P3
  D:00C0H         PUBLIC        P4
  D:0080H         PUBLIC        P5
  D:00A8H         PUBLIC        IEN0
  C:0056H         PUBLIC        InitGasGauge
  C:0203H         PUBLIC        GaugeManage
  -------         PROC          GAUGEMANAGE
  -------         DO            
  X:0204H         SYMBOL        FccDelta
  -------         ENDDO         
  C:0203H         LINE#         20
  C:0203H         LINE#         21
  C:0203H         LINE#         24
  C:020DH         LINE#         25
  C:020DH         LINE#         26
  C:020FH         LINE#         27
  C:0211H         LINE#         29
  C:0211H         LINE#         30
  C:0262H         LINE#         31
  C:0262H         LINE#         32
  C:0264H         LINE#         33
  C:026EH         LINE#         34
  C:026EH         LINE#         35
  C:026EH         LINE#         37
  C:0274H         LINE#         38
  C:0274H         LINE#         39
  C:028CH         LINE#         40
  C:029EH         LINE#         41
  C:029EH         LINE#         42
  C:02AAH         LINE#         43
  C:02CAH         LINE#         44
  C:02CAH         LINE#         45
  C:02CDH         LINE#         46
  C:02ECH         LINE#         47
  C:02EFH         LINE#         48
  C:02F1H         LINE#         50
  C:02F1H         LINE#         51
  C:02F4H         LINE#         52
  C:0306H         LINE#         53
  C:0309H         LINE#         54
  C:0310H         LINE#         55
  C:0310H         LINE#         56
  C:0313H         LINE#         57
  C:0313H         LINE#         58
  C:0319H         LINE#         59
  C:0319H         LINE#         60
BL51 BANKED LINKER/LOCATER V6.22                                                      12/10/2019  11:35:57  PAGE 76


  C:0336H         LINE#         61
  C:0346H         LINE#         62
  C:0346H         LINE#         63
  C:0358H         LINE#         64
  C:0358H         LINE#         65
  C:0364H         LINE#         66
  C:0383H         LINE#         67
  C:039CH         LINE#         68
  C:039CH         LINE#         69
  C:039FH         LINE#         70
  C:03C1H         LINE#         71
  C:03C4H         LINE#         72
  C:03C4H         LINE#         73
  C:03CAH         LINE#         74
  C:03CAH         LINE#         75
  C:03E9H         LINE#         76
  C:03E9H         LINE#         77
  C:03ECH         LINE#         79
  C:040EH         LINE#         80
  C:040EH         LINE#         81
  C:043CH         LINE#         82
  C:044AH         LINE#         83
  C:0459H         LINE#         84
  C:045BH         LINE#         85
  C:0460H         LINE#         87
  C:0460H         LINE#         88
  C:0460H         LINE#         89
  C:0460H         LINE#         91
  C:0480H         LINE#         92
  C:0480H         LINE#         93
  C:0483H         LINE#         94
  C:04B3H         LINE#         95
  C:04B6H         LINE#         96
  C:04B8H         LINE#         98
  C:04B8H         LINE#         99
  C:04BBH         LINE#         100
  C:04C4H         LINE#         101
  C:04C7H         LINE#         102
  C:04C7H         LINE#         104
  C:04CDH         LINE#         105
  C:04CDH         LINE#         106
  C:04D3H         LINE#         107
  C:04D3H         LINE#         108
  C:04FBH         LINE#         110
  C:052AH         LINE#         111
  C:052AH         LINE#         112
  C:0553H         LINE#         113
  C:0555H         LINE#         114
  C:058CH         LINE#         115
  C:058CH         LINE#         116
  C:05B8H         LINE#         117
  C:05B8H         LINE#         118
  C:05BBH         LINE#         119
  C:05CFH         LINE#         120
  C:05D2H         LINE#         121
  C:05E6H         LINE#         122
  C:05E8H         LINE#         123
BL51 BANKED LINKER/LOCATER V6.22                                                      12/10/2019  11:35:57  PAGE 77


  C:05EAH         LINE#         124
  C:05EFH         LINE#         126
  C:05EFH         LINE#         129
  C:05F2H         LINE#         130
  C:0601H         LINE#         131
  C:0601H         LINE#         132
  C:0607H         LINE#         133
  C:0607H         LINE#         134
  C:0632H         LINE#         135
  C:0635H         LINE#         136
  C:0637H         LINE#         137
  C:063AH         LINE#         138
  C:063AH         LINE#         139
  C:063DH         LINE#         140
  C:064FH         LINE#         141
  C:0658H         LINE#         142
  C:065BH         LINE#         143
  C:065BH         LINE#         145
  C:065EH         LINE#         146
  C:0661H         LINE#         147
  C:0661H         LINE#         148
  C:066BH         LINE#         149
  C:0672H         LINE#         150
  C:0674H         LINE#         151
  C:0677H         LINE#         152
  C:0677H         LINE#         153
  C:0689H         LINE#         154
  C:0692H         LINE#         155
  C:0692H         LINE#         156
  C:0695H         LINE#         157
  -------         ENDPROC       GAUGEMANAGE
  -------         PROC          INITGASGAUGE
  -------         DO            
  X:0204H         SYMBOL        i
  -------         ENDDO         
  C:0056H         LINE#         167
  C:0056H         LINE#         168
  C:0056H         LINE#         171
  C:005FH         LINE#         172
  C:0071H         LINE#         173
  C:0071H         LINE#         174
  C:009AH         LINE#         175
  C:009AH         LINE#         176
  C:00A3H         LINE#         177
  C:00A3H         LINE#         178
  C:00B8H         LINE#         179
  C:00B8H         LINE#         180
  C:00BFH         LINE#         181
  C:00C2H         LINE#         183
  C:00C2H         LINE#         184
  C:0123H         LINE#         185
  C:0123H         LINE#         186
  C:0126H         LINE#         187
  C:0126H         LINE#         189
  C:0126H         LINE#         190
  C:01B9H         LINE#         191
  C:01BBH         LINE#         192
BL51 BANKED LINKER/LOCATER V6.22                                                      12/10/2019  11:35:57  PAGE 78


  C:01BBH         LINE#         193
  C:01BBH         LINE#         194
  C:01C4H         LINE#         196
  C:01EFH         LINE#         197
  -------         ENDPROC       INITGASGAUGE
  -------         ENDMOD        GASGAUGE

  -------         MODULE        MCUFLASH
  C:0000H         SYMBOL        _ICE_DUMMY_
  D:00F3H         PUBLIC        IB_CON2
  C:458EH         PUBLIC        _BlackE2CheckUp
  D:0080H         PUBLIC        P0
  D:00F4H         PUBLIC        IB_CON3
  D:0090H         PUBLIC        P1
  D:00F5H         PUBLIC        IB_CON4
  D:00A0H         PUBLIC        P2
  D:00F6H         PUBLIC        IB_CON5
  D:00B0H         PUBLIC        P3
  D:00C0H         PUBLIC        P4
  D:0080H         PUBLIC        P5
  B:00A8H.7       PUBLIC        EA
  D:00FCH         PUBLIC        IB_DATA
  C:32EEH         PUBLIC        _ReadMcuFlash
  C:3862H         PUBLIC        _E2DataCheckUp
  C:30B7H         PUBLIC        _WriteMcuFlash
  D:0099H         PUBLIC        SBUF
  D:00FBH         PUBLIC        IB_OFFSET
  D:00B1H         PUBLIC        RSTSTAT
  C:4506H         PUBLIC        _Flash_wirte_one_byte
  D:00A7H         PUBLIC        FLASHCON
  C:2673H         PUBLIC        FlashProcess
  C:46DDH         PUBLIC        WriteFlashCheck
  B:0098H.4       PUBLIC        REN
  D:00F7H         PUBLIC        XPAGE
  C:3476H         PUBLIC        _WriteE2Sector
  D:00F2H         PUBLIC        IB_CON1
  -------         PROC          _FLASH_WIRTE_ONE_BYTE
  D:0002H         SYMBOL        ADRS
  D:0005H         SYMBOL        WDAT
  C:4506H         LINE#         19
  C:450AH         LINE#         20
  C:450AH         LINE#         21
  C:450CH         LINE#         22
  C:450FH         LINE#         24
  C:4512H         LINE#         25
  C:4516H         LINE#         27
  C:451AH         LINE#         29
  C:451DH         LINE#         30
  C:4520H         LINE#         31
  C:4523H         LINE#         32
  C:4526H         LINE#         33
  C:4529H         LINE#         34
  C:452AH         LINE#         35
  C:452BH         LINE#         36
  C:452CH         LINE#         37
  C:452DH         LINE#         38
  C:452EH         LINE#         40
BL51 BANKED LINKER/LOCATER V6.22                                                      12/10/2019  11:35:57  PAGE 79


  C:4531H         LINE#         41
  C:4533H         LINE#         42
  -------         ENDPROC       _FLASH_WIRTE_ONE_BYTE
  -------         PROC          _BLACKE2CHECKUP
  D:0006H         SYMBOL        Saddr
  -------         DO            
  D:0004H         SYMBOL        i
  -------         ENDDO         
  C:458EH         LINE#         52
  C:458EH         LINE#         53
  C:458EH         LINE#         56
  C:4591H         LINE#         57
  C:4594H         LINE#         59
  C:4596H         LINE#         60
  C:4596H         LINE#         61
  C:4599H         LINE#         62
  C:45A6H         LINE#         63
  C:45A6H         LINE#         64
  C:45A8H         LINE#         65
  C:45A8H         LINE#         66
  C:45B5H         LINE#         68
  C:45B6H         LINE#         69
  -------         ENDPROC       _BLACKE2CHECKUP
  -------         PROC          _WRITEE2SECTOR
  X:020AH         SYMBOL        Saddr
  -------         DO            
  D:0004H         SYMBOL        i
  D:002DH         SYMBOL        ptr
  B:002CH.1       SYMBOL        returnflg
  -------         ENDDO         
  C:3476H         LINE#         79
  C:347EH         LINE#         80
  C:347EH         LINE#         82
  C:3483H         LINE#         83
  C:3485H         LINE#         85
  C:3487H         LINE#         87
  C:3489H         LINE#         88
  C:3489H         LINE#         89
  C:348CH         LINE#         90
  C:3497H         LINE#         91
  C:349DH         LINE#         92
  C:34AAH         LINE#         94
  C:34AFH         LINE#         95
  C:34AFH         LINE#         96
  C:34B2H         LINE#         97
  C:34B5H         LINE#         98
  C:34B5H         LINE#         99
  C:34B8H         LINE#         100
  C:34BCH         LINE#         101
  C:34BCH         LINE#         102
  C:34BFH         LINE#         103
  C:34C7H         LINE#         104
  C:34C7H         LINE#         105
  C:34CAH         LINE#         106
  C:34DAH         LINE#         107
  C:34DAH         LINE#         108
  C:34DDH         LINE#         109
BL51 BANKED LINKER/LOCATER V6.22                                                      12/10/2019  11:35:57  PAGE 80


  C:34DEH         LINE#         110
  C:34DFH         LINE#         111
  C:34E0H         LINE#         112
  C:34E1H         LINE#         113
  C:34E2H         LINE#         115
  C:34E4H         LINE#         116
  C:34E4H         LINE#         117
  C:34E4H         LINE#         118
  C:34E4H         LINE#         119
  C:34E4H         LINE#         120
  C:34E4H         LINE#         121
  C:34E4H         LINE#         122
  C:34E4H         LINE#         123
  C:34E4H         LINE#         124
  C:34E4H         LINE#         125
  C:34E4H         LINE#         126
  C:34F1H         LINE#         127
  C:34F3H         LINE#         128
  -------         ENDPROC       _WRITEE2SECTOR
  -------         PROC          _WRITEMCUFLASH
  X:0208H         SYMBOL        Saddr
  -------         DO            
  B:002CH.0       SYMBOL        returnflg
  -------         ENDDO         
  C:30B7H         LINE#         138
  C:30BFH         LINE#         139
  C:30BFH         LINE#         140
  C:30C1H         LINE#         142
  C:30C4H         LINE#         143
  C:30C6H         LINE#         144
  C:30C9H         LINE#         145
  C:30D2H         LINE#         147
  C:30D7H         LINE#         148
  C:30D7H         LINE#         149
  C:30DAH         LINE#         150
  C:30DDH         LINE#         151
  C:30DDH         LINE#         152
  C:30E0H         LINE#         153
  C:30E4H         LINE#         154
  C:30E4H         LINE#         155
  C:30E7H         LINE#         156
  C:30EFH         LINE#         157
  C:30EFH         LINE#         158
  C:30F2H         LINE#         159
  C:30FBH         LINE#         160
  C:30FBH         LINE#         161
  C:30FEH         LINE#         162
  C:30FFH         LINE#         163
  C:3100H         LINE#         164
  C:3101H         LINE#         165
  C:3102H         LINE#         166
  C:3103H         LINE#         168
  C:3110H         LINE#         169
  C:3110H         LINE#         170
  C:311AH         LINE#         172
  C:3127H         LINE#         173
  C:3127H         LINE#         174
BL51 BANKED LINKER/LOCATER V6.22                                                      12/10/2019  11:35:57  PAGE 81


  C:3134H         LINE#         175
  C:3134H         LINE#         176
  C:3136H         LINE#         177
  C:3136H         LINE#         178
  C:3136H         LINE#         179
  C:3136H         LINE#         180
  C:3136H         LINE#         181
  C:3136H         LINE#         182
  C:3136H         LINE#         183
  C:3136H         LINE#         184
  C:3136H         LINE#         186
  C:3139H         LINE#         187
  C:313BH         LINE#         188
  C:313DH         LINE#         189
  C:313FH         LINE#         190
  C:3141H         LINE#         192
  C:3143H         LINE#         193
  C:3145H         LINE#         194
  C:3147H         LINE#         196
  C:3149H         LINE#         197
  -------         ENDPROC       _WRITEMCUFLASH
  -------         PROC          _E2DATACHECKUP
  X:020AH         SYMBOL        Saddr
  -------         DO            
  D:002DH         SYMBOL        ptr
  X:020CH         SYMBOL        i
  -------         ENDDO         
  C:3862H         LINE#         207
  C:386AH         LINE#         208
  C:386AH         LINE#         209
  C:386FH         LINE#         212
  C:3872H         LINE#         213
  C:3874H         LINE#         215
  C:3886H         LINE#         216
  C:3886H         LINE#         217
  C:3889H         LINE#         218
  C:38B1H         LINE#         219
  C:38B1H         LINE#         220
  C:38B3H         LINE#         221
  C:38B3H         LINE#         222
  C:38C3H         LINE#         223
  C:38C4H         LINE#         224
  -------         ENDPROC       _E2DATACHECKUP
  -------         PROC          FLASHPROCESS
  -------         DO            
  B:002BH.6       SYMBOL        E2S0WRFailFlg
  B:002BH.7       SYMBOL        E2S1WRFailFlg
  -------         ENDDO         
  C:2673H         LINE#         266
  C:2673H         LINE#         267
  C:2673H         LINE#         268
  C:2677H         LINE#         269
  C:267DH         LINE#         271
  C:2684H         LINE#         272
  C:2684H         LINE#         273
  C:268AH         LINE#         274
  C:268CH         LINE#         276
BL51 BANKED LINKER/LOCATER V6.22                                                      12/10/2019  11:35:57  PAGE 82


  C:268CH         LINE#         277
  C:2692H         LINE#         278
  C:2692H         LINE#         280
  C:26B5H         LINE#         281
  C:26B5H         LINE#         282
  C:26BCH         LINE#         283
  C:26BCH         LINE#         284
  C:26C4H         LINE#         285
  C:26C4H         LINE#         286
  C:26C6H         LINE#         287
  C:26CEH         LINE#         288
  C:26D6H         LINE#         289
  C:26DBH         LINE#         290
  C:26DDH         LINE#         291
  C:26E6H         LINE#         292
  C:26E6H         LINE#         293
  C:26EFH         LINE#         294
  C:26EFH         LINE#         295
  C:26F1H         LINE#         296
  C:26F9H         LINE#         297
  C:2701H         LINE#         298
  C:2706H         LINE#         299
  C:2706H         LINE#         300
  C:2706H         LINE#         301
  C:2708H         LINE#         303
  C:2711H         LINE#         304
  C:2711H         LINE#         305
  C:271AH         LINE#         306
  C:271AH         LINE#         307
  C:271CH         LINE#         308
  C:2724H         LINE#         309
  C:272CH         LINE#         310
  C:2731H         LINE#         311
  C:2731H         LINE#         312
  C:2731H         LINE#         313
  C:2733H         LINE#         315
  C:2733H         LINE#         316
  C:2735H         LINE#         317
  C:2737H         LINE#         318
  C:2737H         LINE#         320
  C:273CH         LINE#         322
  C:273FH         LINE#         323
  C:273FH         LINE#         324
  C:2741H         LINE#         326
  C:2747H         LINE#         327
  C:2747H         LINE#         328
  C:274CH         LINE#         329
  C:274DH         LINE#         331
  C:274DH         LINE#         332
  C:2752H         LINE#         333
  C:2752H         LINE#         334
  C:2752H         LINE#         335
  -------         ENDPROC       FLASHPROCESS
  -------         PROC          _READMCUFLASH
  X:0208H         SYMBOL        SourceAddr
  D:0004H         SYMBOL        DestAddr
  X:020AH         SYMBOL        Length
BL51 BANKED LINKER/LOCATER V6.22                                                      12/10/2019  11:35:57  PAGE 83


  -------         DO            
  D:0006H         SYMBOL        i
  B:002BH.6       SYMBOL        result
  D:002DH         SYMBOL        DestAddr1
  -------         ENDDO         
  C:32EEH         LINE#         345
  C:32FCH         LINE#         346
  C:32FCH         LINE#         348
  C:32FEH         LINE#         349
  C:3306H         LINE#         351
  C:3308H         LINE#         352
  C:330BH         LINE#         354
  C:3333H         LINE#         355
  C:3333H         LINE#         356
  C:3342H         LINE#         357
  C:3342H         LINE#         358
  C:3345H         LINE#         359
  C:335DH         LINE#         360
  C:3365H         LINE#         361
  C:336CH         LINE#         362
  C:336EH         LINE#         363
  C:336EH         LINE#         365
  C:3371H         LINE#         366
  C:3373H         LINE#         367
  -------         ENDPROC       _READMCUFLASH
  -------         PROC          WRITEFLASHCHECK
  C:46DDH         LINE#         377
  C:46DDH         LINE#         378
  C:46DDH         LINE#         379
  C:46E0H         LINE#         380
  C:46E0H         LINE#         381
  C:46EBH         LINE#         382
  C:46EBH         LINE#         383
  C:46EDH         LINE#         384
  C:46EFH         LINE#         385
  C:46F1H         LINE#         386
  C:46F1H         LINE#         387
  C:46F1H         LINE#         388
  -------         ENDPROC       WRITEFLASHCHECK
  -------         ENDMOD        MCUFLASH

  -------         MODULE        EXTE2PROM
  C:0000H         SYMBOL        _ICE_DUMMY_
  D:0080H         PUBLIC        P0
  D:0090H         PUBLIC        P1
  D:00A0H         PUBLIC        P2
  C:10C0H         PUBLIC        _E2PRomBKData
  D:00B0H         PUBLIC        P3
  D:00C0H         PUBLIC        P4
  D:0080H         PUBLIC        P5
  C:40A3H         PUBLIC        _E2PRomWrite
  C:33F6H         PUBLIC        InitE2PRom
  C:4240H         PUBLIC        E2PRomBKBoot
  D:0099H         PUBLIC        SBUF
  D:00B1H         PUBLIC        RSTSTAT
  C:3CD9H         PUBLIC        UartRdRTC
  C:36CBH         PUBLIC        UartRdE2PRom
BL51 BANKED LINKER/LOCATER V6.22                                                      12/10/2019  11:35:57  PAGE 84


  B:0098H.4       PUBLIC        REN
  C:2753H         PUBLIC        E2PRomBKCheck
  C:3B93H         PUBLIC        E2PRomBKProcess
  C:365BH         PUBLIC        E2PRomErase
  C:3B3EH         PUBLIC        E2PRomBKRTC
  C:3C8AH         PUBLIC        _E2PRomRead
  -------         PROC          _E2PROMWRITE
  X:022EH         SYMBOL        WrAddr
  X:0230H         SYMBOL        Length
  X:0231H         SYMBOL        WrBuf
  -------         DO            
  X:0233H         SYMBOL        wirtecount
  -------         ENDDO         
  C:40A3H         LINE#         20
  C:40B4H         LINE#         21
  C:40B4H         LINE#         24
  C:40B8H         LINE#         25
  C:40DDH         LINE#         26
  C:40DDH         LINE#         27
  C:40E2H         LINE#         28
  C:40E8H         LINE#         29
  C:40EAH         LINE#         30
  -------         ENDPROC       _E2PROMWRITE
  -------         PROC          _E2PROMREAD
  X:0216H         SYMBOL        RdAddr
  X:0218H         SYMBOL        Length
  X:0219H         SYMBOL        RdBuf
  -------         DO            
  B:002BH.6       SYMBOL        result
  X:021BH         SYMBOL        readcount
  -------         ENDDO         
  C:3C8AH         LINE#         39
  C:3C9BH         LINE#         40
  C:3C9BH         LINE#         41
  C:3C9DH         LINE#         45
  C:3CA1H         LINE#         46
  C:3CAAH         LINE#         47
  C:3CAAH         LINE#         48
  C:3CC9H         LINE#         49
  C:3CCEH         LINE#         50
  C:3CD4H         LINE#         51
  C:3CD6H         LINE#         53
  C:3CD8H         LINE#         54
  -------         ENDPROC       _E2PROMREAD
  -------         PROC          E2PROMERASE
  -------         DO            
  X:0205H         SYMBOL        i
  X:0207H         SYMBOL        WrBuf
  -------         ENDDO         
  C:365BH         LINE#         64
  C:365BH         LINE#         65
  C:365BH         LINE#         69
  C:3666H         LINE#         71
  C:3684H         LINE#         72
  C:3684H         LINE#         73
  C:3687H         LINE#         74
  C:36A6H         LINE#         75
BL51 BANKED LINKER/LOCATER V6.22                                                      12/10/2019  11:35:57  PAGE 85


  C:36B6H         LINE#         77
  C:36C3H         LINE#         78
  C:36CAH         LINE#         79
  -------         ENDPROC       E2PROMERASE
  -------         PROC          INITE2PROM
  -------         DO            
  X:0205H         SYMBOL        RdBuf
  -------         ENDDO         
  C:33F6H         LINE#         89
  C:33F6H         LINE#         90
  C:33F6H         LINE#         93
  C:33F9H         LINE#         94
  C:33F9H         LINE#         95
  C:33FBH         LINE#         96
  C:33FCH         LINE#         97
  C:33FFH         LINE#         98
  C:33FFH         LINE#         99
  C:3401H         LINE#         100
  C:340EH         LINE#         102
  C:341CH         LINE#         103
  C:342AH         LINE#         105
  C:3436H         LINE#         106
  C:3436H         LINE#         107
  C:344BH         LINE#         108
  C:344CH         LINE#         109
  C:3458H         LINE#         110
  C:3458H         LINE#         111
  C:346DH         LINE#         112
  C:346EH         LINE#         114
  C:346EH         LINE#         115
  C:3475H         LINE#         116
  C:3475H         LINE#         117
  C:3475H         LINE#         118
  -------         ENDPROC       INITE2PROM
  -------         PROC          E2PROMBKRTC
  -------         DO            
  X:0205H         SYMBOL        WrBuf
  D:0007H         SYMBOL        i
  X:020EH         SYMBOL        checksum
  -------         ENDDO         
  C:3B3EH         LINE#         128
  C:3B3EH         LINE#         129
  C:3B3EH         LINE#         131
  C:3B43H         LINE#         133
  C:3B46H         LINE#         134
  C:3B53H         LINE#         135
  C:3B60H         LINE#         136
  C:3B62H         LINE#         137
  C:3B62H         LINE#         138
  C:3B74H         LINE#         139
  C:3B79H         LINE#         140
  C:3B81H         LINE#         141
  C:3B85H         LINE#         143
  C:3B92H         LINE#         144
  -------         ENDPROC       E2PROMBKRTC
  -------         PROC          E2PROMBKBOOT
  -------         DO            
BL51 BANKED LINKER/LOCATER V6.22                                                      12/10/2019  11:35:57  PAGE 86


  X:0226H         SYMBOL        WrBuf
  -------         ENDDO         
  C:4240H         LINE#         154
  C:4240H         LINE#         155
  C:4240H         LINE#         158
  C:424DH         LINE#         159
  C:4252H         LINE#         160
  C:425BH         LINE#         162
  C:4263H         LINE#         163
  C:426BH         LINE#         164
  C:4273H         LINE#         166
  C:4280H         LINE#         167
  -------         ENDPROC       E2PROMBKBOOT
  -------         PROC          _E2PROMBKDATA
  X:0205H         SYMBOL        BKType
  -------         DO            
  X:0206H         SYMBOL        WrBuf
  -------         ENDDO         
  C:10C0H         LINE#         177
  C:10C5H         LINE#         178
  C:10C5H         LINE#         181
  C:10C9H         LINE#         182
  C:10C9H         LINE#         183
  C:10D6H         LINE#         184
  C:10E3H         LINE#         185
  C:10E5H         LINE#         187
  C:10E5H         LINE#         188
  C:10E8H         LINE#         189
  C:10F5H         LINE#         190
  C:1102H         LINE#         191
  C:1102H         LINE#         193
  C:110FH         LINE#         194
  C:1112H         LINE#         195
  C:111FH         LINE#         196
  C:1122H         LINE#         197
  C:113AH         LINE#         198
  C:1152H         LINE#         199
  C:116AH         LINE#         200
  C:1178H         LINE#         201
  C:1190H         LINE#         202
  C:11A8H         LINE#         203
  C:11C0H         LINE#         204
  C:11CEH         LINE#         205
  C:11E5H         LINE#         206
  C:11F5H         LINE#         207
  C:1202H         LINE#         208
  C:1205H         LINE#         209
  C:121DH         LINE#         210
  C:1235H         LINE#         211
  C:124DH         LINE#         212
  C:125BH         LINE#         213
  C:1268H         LINE#         214
  C:126BH         LINE#         215
  C:1278H         LINE#         216
  C:127BH         LINE#         217
  C:1283H         LINE#         218
  C:1287H         LINE#         220
BL51 BANKED LINKER/LOCATER V6.22                                                      12/10/2019  11:35:57  PAGE 87


  C:1298H         LINE#         222
  C:12A6H         LINE#         223
  C:12BAH         LINE#         224
  C:12BAH         LINE#         225
  C:12C1H         LINE#         226
  C:12C1H         LINE#         228
  C:12C4H         LINE#         229
  -------         ENDPROC       _E2PROMBKDATA
  -------         PROC          UARTRDE2PROM
  -------         DO            
  D:0006H         SYMBOL        RdAddr
  -------         ENDDO         
  C:36CBH         LINE#         239
  C:36CBH         LINE#         240
  C:36CBH         LINE#         243
  C:36F6H         LINE#         245
  C:3702H         LINE#         247
  C:3721H         LINE#         249
  C:3733H         LINE#         250
  -------         ENDPROC       UARTRDE2PROM
  -------         PROC          UARTRDRTC
  C:3CD9H         LINE#         260
  C:3CD9H         LINE#         261
  C:3CD9H         LINE#         262
  C:3CDCH         LINE#         263
  C:3CE9H         LINE#         264
  C:3CF6H         LINE#         266
  C:3D15H         LINE#         268
  C:3D27H         LINE#         269
  -------         ENDPROC       UARTRDRTC
  -------         PROC          E2PROMBKPROCESS
  -------         DO            
  X:0204H         SYMBOL        BKType
  -------         ENDDO         
  C:3B93H         LINE#         279
  C:3B93H         LINE#         280
  C:3B93H         LINE#         283
  C:3B96H         LINE#         284
  C:3B99H         LINE#         286
  C:3B9CH         LINE#         287
  C:3B9CH         LINE#         288
  C:3B9EH         LINE#         289
  C:3BA1H         LINE#         290
  C:3BA1H         LINE#         292
  C:3BA4H         LINE#         293
  C:3BA4H         LINE#         294
  C:3BA6H         LINE#         295
  C:3BA9H         LINE#         296
  C:3BA9H         LINE#         298
  C:3BACH         LINE#         299
  C:3BACH         LINE#         300
  C:3BAEH         LINE#         301
  C:3BB1H         LINE#         302
  C:3BB1H         LINE#         304
  C:3BB4H         LINE#         305
  C:3BB4H         LINE#         306
  C:3BB6H         LINE#         307
BL51 BANKED LINKER/LOCATER V6.22                                                      12/10/2019  11:35:57  PAGE 88


  C:3BB9H         LINE#         308
  C:3BB9H         LINE#         310
  C:3BBCH         LINE#         311
  C:3BBCH         LINE#         312
  C:3BBEH         LINE#         313
  C:3BC4H         LINE#         314
  C:3BC8H         LINE#         315
  C:3BC8H         LINE#         317
  C:3BCBH         LINE#         318
  C:3BCBH         LINE#         319
  C:3BCDH         LINE#         320
  C:3BD3H         LINE#         321
  C:3BD7H         LINE#         322
  C:3BD7H         LINE#         324
  C:3BDAH         LINE#         325
  C:3BDAH         LINE#         326
  C:3BDCH         LINE#         327
  C:3BE2H         LINE#         328
  C:3BE6H         LINE#         329
  C:3BE6H         LINE#         330
  -------         ENDPROC       E2PROMBKPROCESS
  -------         PROC          E2PROMBKCHECK
  C:2753H         LINE#         340
  C:2753H         LINE#         341
  C:2753H         LINE#         342
  C:2756H         LINE#         343
  C:2759H         LINE#         345
  C:2768H         LINE#         346
  C:2768H         LINE#         347
  C:276AH         LINE#         348
  C:276DH         LINE#         349
  C:276DH         LINE#         351
  C:2782H         LINE#         352
  C:2782H         LINE#         353
  C:2789H         LINE#         354
  C:278BH         LINE#         355
  C:278DH         LINE#         356
  C:278DH         LINE#         358
  C:2790H         LINE#         359
  C:2790H         LINE#         360
  C:2792H         LINE#         361
  C:2795H         LINE#         362
  C:2795H         LINE#         363
  C:2797H         LINE#         364
  C:2799H         LINE#         365
  C:279BH         LINE#         366
  C:279BH         LINE#         367
  C:27A1H         LINE#         368
  C:27A1H         LINE#         369
  C:27A3H         LINE#         370
  C:27A5H         LINE#         371
  C:27A7H         LINE#         372
  C:27A9H         LINE#         373
  C:27ACH         LINE#         374
  C:27ACH         LINE#         375
  C:27AEH         LINE#         376
  C:27AEH         LINE#         377
BL51 BANKED LINKER/LOCATER V6.22                                                      12/10/2019  11:35:57  PAGE 89


  C:27AEH         LINE#         379
  C:27D3H         LINE#         380
  C:27D3H         LINE#         381
  C:27DDH         LINE#         382
  C:27DDH         LINE#         383
  C:27E0H         LINE#         384
  C:27EDH         LINE#         385
  C:27EDH         LINE#         387
  C:280EH         LINE#         388
  C:280EH         LINE#         389
  C:2815H         LINE#         390
  C:2817H         LINE#         391
  C:2819H         LINE#         392
  C:281BH         LINE#         393
  C:281DH         LINE#         394
  C:281DH         LINE#         395
  C:281EH         LINE#         397
  C:281EH         LINE#         398
  C:2825H         LINE#         399
  C:2825H         LINE#         400
  -------         ENDPROC       E2PROMBKCHECK
  -------         ENDMOD        EXTE2PROM

  -------         MODULE        RTC
  C:0000H         SYMBOL        _ICE_DUMMY_
  D:0080H         PUBLIC        P0
  C:2166H         PUBLIC        InitRTC
  D:0090H         PUBLIC        P1
  D:00A0H         PUBLIC        P2
  D:00B0H         PUBLIC        P3
  D:00C0H         PUBLIC        P4
  D:0080H         PUBLIC        P5
  C:3D76H         PUBLIC        _RTCRead
  C:38C5H         PUBLIC        RTCModifyTime
  C:3D28H         PUBLIC        _RTCWrite
  C:2DAAH         PUBLIC        RTCReadTime
  -------         PROC          _RTCWRITE
  X:022FH         SYMBOL        WrAddr
  X:0230H         SYMBOL        Length
  X:0231H         SYMBOL        WrBuf
  -------         DO            
  B:002CH.1       SYMBOL        result
  -------         ENDDO         
  C:3D28H         LINE#         20
  C:3D39H         LINE#         21
  C:3D39H         LINE#         22
  C:3D3BH         LINE#         24
  C:3D55H         LINE#         25
  C:3D55H         LINE#         26
  C:3D73H         LINE#         27
  C:3D73H         LINE#         29
  C:3D75H         LINE#         30
  -------         ENDPROC       _RTCWRITE
  -------         PROC          _RTCREAD
  X:022FH         SYMBOL        RdAddr
  X:0230H         SYMBOL        Length
  X:0231H         SYMBOL        RdBuf
BL51 BANKED LINKER/LOCATER V6.22                                                      12/10/2019  11:35:57  PAGE 90


  -------         DO            
  B:002BH.7       SYMBOL        result
  -------         ENDDO         
  C:3D76H         LINE#         40
  C:3D87H         LINE#         41
  C:3D87H         LINE#         42
  C:3D89H         LINE#         44
  C:3DA3H         LINE#         45
  C:3DA3H         LINE#         46
  C:3DC1H         LINE#         47
  C:3DC1H         LINE#         49
  C:3DC3H         LINE#         50
  -------         ENDPROC       _RTCREAD
  -------         PROC          RTCREADTIME
  -------         DO            
  X:0226H         SYMBOL        rtcbuf
  B:002BH.6       SYMBOL        result
  -------         ENDDO         
  C:2DAAH         LINE#         60
  C:2DAAH         LINE#         61
  C:2DAAH         LINE#         63
  C:2DACH         LINE#         65
  C:2DBCH         LINE#         66
  C:2DBCH         LINE#         67
  C:2DC3H         LINE#         68
  C:2DC3H         LINE#         69
  C:2DCBH         LINE#         70
  C:2DD3H         LINE#         71
  C:2DDDH         LINE#         72
  C:2DE5H         LINE#         73
  C:2DEDH         LINE#         74
  C:2DF5H         LINE#         75
  C:2DFDH         LINE#         76
  C:2DFFH         LINE#         77
  C:2E01H         LINE#         79
  C:2E01H         LINE#         80
  C:2E09H         LINE#         81
  C:2E11H         LINE#         82
  C:2E1BH         LINE#         83
  C:2E23H         LINE#         84
  C:2E2BH         LINE#         85
  C:2E33H         LINE#         86
  C:2E3BH         LINE#         87
  C:2E3FH         LINE#         88
  C:2E42H         LINE#         89
  C:2E4CH         LINE#         90
  C:2E4CH         LINE#         91
  C:2E4CH         LINE#         93
  C:2E4EH         LINE#         94
  -------         ENDPROC       RTCREADTIME
  -------         PROC          RTCMODIFYTIME
  -------         DO            
  B:002CH.0       SYMBOL        result
  X:0204H         SYMBOL        rtcdata
  X:0205H         SYMBOL        rtctemp
  -------         ENDDO         
  C:38C5H         LINE#         103
BL51 BANKED LINKER/LOCATER V6.22                                                      12/10/2019  11:35:57  PAGE 91


  C:38C5H         LINE#         104
  C:38C5H         LINE#         105
  C:38C7H         LINE#         109
  C:38CDH         LINE#         110
  C:38DAH         LINE#         112
  C:38E2H         LINE#         113
  C:38EAH         LINE#         114
  C:38F4H         LINE#         115
  C:38FCH         LINE#         116
  C:3904H         LINE#         117
  C:390CH         LINE#         118
  C:3914H         LINE#         120
  C:3921H         LINE#         122
  C:3923H         LINE#         123
  -------         ENDPROC       RTCMODIFYTIME
  -------         PROC          INITRTC
  -------         DO            
  X:0205H         SYMBOL        rtcbuf
  D:0007H         SYMBOL        i
  X:020CH         SYMBOL        checksum
  X:020DH         SYMBOL        rtcdata1
  X:020EH         SYMBOL        rtcbuf2
  -------         ENDDO         
  C:2166H         LINE#         133
  C:2166H         LINE#         134
  C:2166H         LINE#         136
  C:216BH         LINE#         140
  C:216EH         LINE#         141
  C:216EH         LINE#         142
  C:2170H         LINE#         143
  C:2171H         LINE#         144
  C:2177H         LINE#         145
  C:2177H         LINE#         146
  C:2179H         LINE#         148
  C:2184H         LINE#         149
  C:218FH         LINE#         151
  C:219CH         LINE#         152
  C:219EH         LINE#         153
  C:219EH         LINE#         154
  C:21B0H         LINE#         155
  C:21B5H         LINE#         157
  C:21C7H         LINE#         158
  C:21C7H         LINE#         159
  C:21CCH         LINE#         160
  C:21CEH         LINE#         161
  C:21D2H         LINE#         162
  C:21D6H         LINE#         163
  C:21DAH         LINE#         164
  C:21DEH         LINE#         165
  C:21E2H         LINE#         166
  C:21E4H         LINE#         168
  C:21E4H         LINE#         169
  C:21ECH         LINE#         170
  C:21F4H         LINE#         171
  C:21FCH         LINE#         172
  C:2200H         LINE#         173
  C:2208H         LINE#         174
BL51 BANKED LINKER/LOCATER V6.22                                                      12/10/2019  11:35:57  PAGE 92


  C:2210H         LINE#         175
  C:2218H         LINE#         176
  C:2218H         LINE#         178
  C:2225H         LINE#         180
  C:222DH         LINE#         181
  C:2235H         LINE#         182
  C:223FH         LINE#         183
  C:2247H         LINE#         184
  C:224FH         LINE#         185
  C:2257H         LINE#         186
  C:225FH         LINE#         188
  C:2265H         LINE#         189
  C:2270H         LINE#         190
  C:2276H         LINE#         191
  C:2280H         LINE#         193
  C:2285H         LINE#         194
  C:2285H         LINE#         195
  C:2290H         LINE#         196
  C:2290H         LINE#         197
  C:2290H         LINE#         198
  -------         ENDPROC       INITRTC
  -------         ENDMOD        RTC

  -------         MODULE        TWIIO
  C:0000H         SYMBOL        _ICE_DUMMY_
  D:0080H         PUBLIC        P0
  D:0090H         PUBLIC        P1
  D:00A0H         PUBLIC        P2
  D:00B0H         PUBLIC        P3
  D:00C0H         PUBLIC        P4
  D:0080H         PUBLIC        P5
  -------         ENDMOD        TWIIO

  -------         MODULE        TWIMODULE
  C:0000H         SYMBOL        _ICE_DUMMY_
  D:0080H         PUBLIC        P0
  D:0090H         PUBLIC        P1
  D:00A0H         PUBLIC        P2
  D:00B0H         PUBLIC        P3
  D:00C0H         PUBLIC        P4
  D:0080H         PUBLIC        P5
  D:008AH         PUBLIC        TWIBR
  D:00C6H         PUBLIC        TWICR
  D:0089H         PUBLIC        TWTFREE
  C:14B1H         PUBLIC        _TwiRead
  D:00B1H         PUBLIC        RSTSTAT
  C:4689H         PUBLIC        _CRC8cal
  D:00E6H         PUBLIC        TWITOUT
  C:1B07H         PUBLIC        _TwiWrite
  C:4706H         PUBLIC        InitTwi
  D:008DH         PUBLIC        TWIDAT
  D:00C8H         PUBLIC        TWICON
  D:00D1H         PUBLIC        TWISTA
  C:45B7H         PUBLIC        _TWICheckStatus
  C:2395H         PUBLIC        CRC8Table
  -------         PROC          _TWICHECKSTATUS
  D:0007H         SYMBOL        Status
BL51 BANKED LINKER/LOCATER V6.22                                                      12/10/2019  11:35:57  PAGE 93


  -------         DO            
  B:002CH.3       SYMBOL        result
  D:0004H         SYMBOL        timeoutcount
  -------         ENDDO         
  C:45B7H         LINE#         44
  C:45B7H         LINE#         45
  C:45B7H         LINE#         46
  C:45B9H         LINE#         47
  C:45BDH         LINE#         49
  C:45C2H         LINE#         50
  C:45C2H         LINE#         51
  C:45C5H         LINE#         52
  C:45C9H         LINE#         53
  C:45C9H         LINE#         54
  C:45CEH         LINE#         55
  C:45D0H         LINE#         57
  C:45D0H         LINE#         58
  C:45D0H         LINE#         59
  C:45D0H         LINE#         60
  C:45D2H         LINE#         61
  C:45D9H         LINE#         62
  C:45D9H         LINE#         63
  C:45DBH         LINE#         64
  C:45DBH         LINE#         66
  C:45DDH         LINE#         67
  -------         ENDPROC       _TWICHECKSTATUS
  -------         PROC          _CRC8CAL
  D:0001H         SYMBOL        p
  D:0005H         SYMBOL        counter
  -------         DO            
  D:0007H         SYMBOL        crc8
  -------         ENDDO         
  C:4689H         LINE#         76
  C:4689H         LINE#         77
  C:4689H         LINE#         78
  C:468BH         LINE#         80
  C:4691H         LINE#         81
  C:4691H         LINE#         82
  C:4694H         LINE#         83
  C:469DH         LINE#         84
  C:46A4H         LINE#         85
  C:46A7H         LINE#         86
  C:46A7H         LINE#         87
  -------         ENDPROC       _CRC8CAL
  -------         PROC          _TWIWRITE
  X:0234H         SYMBOL        SlaveID
  X:0235H         SYMBOL        WrAddr
  X:0237H         SYMBOL        Length
  X:0238H         SYMBOL        WrBuf
  -------         DO            
  D:0006H         SYMBOL        i
  X:023AH         SYMBOL        TempBuf
  B:002CH.2       SYMBOL        result
  X:023EH         SYMBOL        timeoutcount
  C:1C2DH         SYMBOL        WrErr
  -------         ENDDO         
  C:1B07H         LINE#         99
BL51 BANKED LINKER/LOCATER V6.22                                                      12/10/2019  11:35:57  PAGE 94


  C:1B17H         LINE#         100
  C:1B17H         LINE#         103
  C:1B19H         LINE#         104
  C:1B23H         LINE#         106
  C:1B28H         LINE#         107
  C:1B2BH         LINE#         108
  C:1B3BH         LINE#         109
  C:1B4BH         LINE#         111
  C:1B57H         LINE#         112
  C:1B57H         LINE#         113
  C:1B60H         LINE#         114
  C:1B63H         LINE#         115
  C:1B71H         LINE#         116
  C:1B71H         LINE#         117
  C:1B73H         LINE#         118
  C:1B76H         LINE#         119
  C:1B76H         LINE#         121
  C:1B7CH         LINE#         122
  C:1B7FH         LINE#         123
  C:1B86H         LINE#         124
  C:1B86H         LINE#         125
  C:1B88H         LINE#         126
  C:1B8BH         LINE#         127
  C:1B8BH         LINE#         129
  C:1B92H         LINE#         130
  C:1B92H         LINE#         131
  C:1B96H         LINE#         132
  C:1B99H         LINE#         133
  C:1BA0H         LINE#         134
  C:1BA0H         LINE#         135
  C:1BA2H         LINE#         136
  C:1BA5H         LINE#         137
  C:1BA5H         LINE#         138
  C:1BA5H         LINE#         140
  C:1BADH         LINE#         141
  C:1BB0H         LINE#         142
  C:1BB7H         LINE#         143
  C:1BB7H         LINE#         144
  C:1BB9H         LINE#         145
  C:1BBBH         LINE#         146
  C:1BBBH         LINE#         148
  C:1BC3H         LINE#         149
  C:1BC3H         LINE#         150
  C:1BD1H         LINE#         151
  C:1BD4H         LINE#         152
  C:1BDBH         LINE#         153
  C:1BDBH         LINE#         154
  C:1BDDH         LINE#         155
  C:1BDFH         LINE#         156
  C:1BDFH         LINE#         158
  C:1BE5H         LINE#         159
  C:1BE8H         LINE#         160
  C:1BEFH         LINE#         161
  C:1BEFH         LINE#         162
  C:1BF1H         LINE#         163
  C:1BF3H         LINE#         164
  C:1BF3H         LINE#         165
BL51 BANKED LINKER/LOCATER V6.22                                                      12/10/2019  11:35:57  PAGE 95


  C:1BF3H         LINE#         167
  C:1BF3H         LINE#         168
  C:1BFFH         LINE#         169
  C:1BFFH         LINE#         170
  C:1C02H         LINE#         171
  C:1C0EH         LINE#         172
  C:1C11H         LINE#         173
  C:1C18H         LINE#         174
  C:1C18H         LINE#         175
  C:1C1AH         LINE#         176
  C:1C1CH         LINE#         177
  C:1C1CH         LINE#         178
  C:1C2AH         LINE#         179
  C:1C2DH         LINE#         180
  C:1C2DH         LINE#         181
  C:1C2DH         LINE#         182
  C:1C30H         LINE#         183
  C:1C35H         LINE#         184
  C:1C35H         LINE#         185
  C:1C38H         LINE#         186
  C:1C42H         LINE#         187
  C:1C42H         LINE#         188
  C:1C50H         LINE#         189
  C:1C52H         LINE#         191
  C:1C52H         LINE#         192
  C:1C52H         LINE#         193
  C:1C52H         LINE#         194
  C:1C54H         LINE#         195
  C:1C54H         LINE#         197
  C:1C56H         LINE#         198
  -------         ENDPROC       _TWIWRITE
  -------         PROC          _TWIREAD
  D:0002H         SYMBOL        SlaveID
  X:0234H         SYMBOL        RdAddr
  X:0236H         SYMBOL        Length
  X:0237H         SYMBOL        RdBuf
  -------         DO            
  B:002CH.1       SYMBOL        result
  X:0239H         SYMBOL        i
  X:023AH         SYMBOL        TempBuf
  X:0268H         SYMBOL        RdCrc
  X:0269H         SYMBOL        timeoutcount
  C:164BH         SYMBOL        RdErr
  -------         ENDDO         
  C:14B1H         LINE#         210
  C:14BEH         LINE#         211
  C:14BEH         LINE#         212
  C:14C0H         LINE#         215
  C:14C5H         LINE#         216
  C:14CDH         LINE#         218
  C:14D2H         LINE#         219
  C:14D5H         LINE#         221
  C:14DAH         LINE#         223
  C:14E3H         LINE#         224
  C:14E3H         LINE#         225
  C:14ECH         LINE#         226
  C:14EFH         LINE#         227
BL51 BANKED LINKER/LOCATER V6.22                                                      12/10/2019  11:35:57  PAGE 96


  C:14FDH         LINE#         228
  C:14FDH         LINE#         229
  C:14FFH         LINE#         230
  C:1502H         LINE#         231
  C:1502H         LINE#         233
  C:1504H         LINE#         234
  C:1507H         LINE#         235
  C:150EH         LINE#         236
  C:150EH         LINE#         237
  C:1510H         LINE#         238
  C:1513H         LINE#         239
  C:1513H         LINE#         241
  C:1517H         LINE#         242
  C:1517H         LINE#         243
  C:151DH         LINE#         244
  C:1520H         LINE#         245
  C:1527H         LINE#         246
  C:1527H         LINE#         247
  C:1529H         LINE#         248
  C:152CH         LINE#         249
  C:152CH         LINE#         250
  C:152CH         LINE#         252
  C:1534H         LINE#         253
  C:1537H         LINE#         254
  C:153EH         LINE#         255
  C:153EH         LINE#         256
  C:1540H         LINE#         257
  C:1543H         LINE#         258
  C:1543H         LINE#         271
  C:1546H         LINE#         272
  C:1554H         LINE#         273
  C:1554H         LINE#         274
  C:1556H         LINE#         275
  C:1559H         LINE#         276
  C:1559H         LINE#         278
  C:155EH         LINE#         279
  C:1561H         LINE#         280
  C:1568H         LINE#         281
  C:1568H         LINE#         282
  C:156AH         LINE#         283
  C:156DH         LINE#         284
  C:156DH         LINE#         286
  C:1580H         LINE#         287
  C:1580H         LINE#         288
  C:1583H         LINE#         289
  C:1588H         LINE#         290
  C:1588H         LINE#         291
  C:158DH         LINE#         292
  C:158DH         LINE#         293
  C:1590H         LINE#         294
  C:1595H         LINE#         295
  C:1597H         LINE#         297
  C:1597H         LINE#         298
  C:159AH         LINE#         299
  C:159FH         LINE#         300
  C:159FH         LINE#         301
  C:15ADH         LINE#         302
BL51 BANKED LINKER/LOCATER V6.22                                                      12/10/2019  11:35:57  PAGE 97


  C:15BBH         LINE#         303
  C:15BDH         LINE#         305
  C:15BDH         LINE#         306
  C:15C0H         LINE#         307
  C:15C5H         LINE#         308
  C:15D5H         LINE#         309
  C:15D5H         LINE#         310
  C:15DDH         LINE#         312
  C:15E2H         LINE#         313
  C:15E2H         LINE#         314
  C:15E5H         LINE#         315
  C:15EAH         LINE#         316
  C:15F0H         LINE#         317
  C:1607H         LINE#         318
  C:1607H         LINE#         319
  C:161AH         LINE#         320
  C:161AH         LINE#         321
  C:1633H         LINE#         322
  C:1641H         LINE#         323
  C:1649H         LINE#         324
  C:1649H         LINE#         326
  C:1649H         LINE#         327
  C:164BH         LINE#         328
  C:164BH         LINE#         329
  C:164BH         LINE#         330
  C:164BH         LINE#         331
  C:164BH         LINE#         332
  C:164EH         LINE#         333
  C:1653H         LINE#         334
  C:1653H         LINE#         335
  C:1656H         LINE#         336
  C:1660H         LINE#         337
  C:1660H         LINE#         338
  C:166EH         LINE#         339
  C:1670H         LINE#         341
  C:1670H         LINE#         342
  C:1670H         LINE#         343
  C:1670H         LINE#         344
  C:1672H         LINE#         345
  C:1672H         LINE#         347
  C:1674H         LINE#         348
  -------         ENDPROC       _TWIREAD
  -------         PROC          INITTWI
  C:4706H         LINE#         358
  C:4706H         LINE#         359
  C:4706H         LINE#         360
  C:4709H         LINE#         361
  C:470CH         LINE#         362
  C:470FH         LINE#         363
  C:4711H         LINE#         364
  C:4714H         LINE#         365
  C:4717H         LINE#         366
  C:4719H         LINE#         367
  -------         ENDPROC       INITTWI
  -------         ENDMOD        TWIMODULE

  -------         MODULE        ISP
BL51 BANKED LINKER/LOCATER V6.22                                                      12/10/2019  11:35:57  PAGE 98


  C:0000H         SYMBOL        _ICE_DUMMY_
  D:00F3H         PUBLIC        IB_CON2
  D:0080H         PUBLIC        P0
  D:00F4H         PUBLIC        IB_CON3
  D:0090H         PUBLIC        P1
  D:00F5H         PUBLIC        IB_CON4
  D:00A0H         PUBLIC        P2
  D:00F6H         PUBLIC        IB_CON5
  D:00B0H         PUBLIC        P3
  D:00C0H         PUBLIC        P4
  D:009DH         PUBLIC        SBRTH
  D:0080H         PUBLIC        P5
  B:00A8H.7       PUBLIC        EA
  D:00FCH         PUBLIC        IB_DATA
  D:009CH         PUBLIC        SBRTL
  D:00E1H         PUBLIC        P0CR
  B:0098H.0       PUBLIC        RI
  B:0098H.1       PUBLIC        TI
  D:0081H         PUBLIC        SP
  C:F509H         PUBLIC        ISPProcessCMD
  D:0099H         PUBLIC        SBUF
  D:0098H         PUBLIC        SCON
  D:00FBH         PUBLIC        IB_OFFSET
  D:00B1H         PUBLIC        RSTSTAT
  D:00B2H         PUBLIC        CLKCON
  C:F400H         PUBLIC        ISPProcess
  D:00A7H         PUBLIC        FLASHCON
  B:0098H.4       PUBLIC        REN
  D:00E9H         PUBLIC        P0PCR
  D:009BH         PUBLIC        SADEN
  D:009AH         PUBLIC        SADDR
  D:009EH         PUBLIC        SFINE
  D:00F7H         PUBLIC        XPAGE
  D:00F2H         PUBLIC        IB_CON1
  -------         PROC          ISPPROCESS
  C:F400H         LINE#         19
  C:F400H         LINE#         20
  C:F400H         LINE#         21
  C:F402H         LINE#         22
  C:F405H         LINE#         23
  C:F408H         LINE#         24
  C:F409H         LINE#         25
  C:F40AH         LINE#         26
  C:F40BH         LINE#         27
  C:F40CH         LINE#         28
  C:F40DH         LINE#         29
  C:F40EH         LINE#         30
  C:F40FH         LINE#         31
  C:F410H         LINE#         32
  C:F413H         LINE#         34
  C:F418H         LINE#         35
  C:F41CH         LINE#         36
  C:F41EH         LINE#         37
  C:F420H         LINE#         38
  C:F422H         LINE#         39
  C:F426H         LINE#         41
  C:F429H         LINE#         42
BL51 BANKED LINKER/LOCATER V6.22                                                      12/10/2019  11:35:57  PAGE 99


  C:F42CH         LINE#         43
  C:F42FH         LINE#         45
  C:F432H         LINE#         46
  C:F435H         LINE#         47
  C:F438H         LINE#         48
  C:F43BH         LINE#         49
  C:F43EH         LINE#         50
  C:F441H         LINE#         52
  C:F441H         LINE#         53
  C:F441H         LINE#         54
  C:F444H         LINE#         55
  C:F44AH         LINE#         56
  C:F44AH         LINE#         57
  C:F45AH         LINE#         58
  C:F460H         LINE#         59
  C:F468H         LINE#         60
  C:F468H         LINE#         61
  C:F46DH         LINE#         62
  C:F471H         LINE#         63
  C:F473H         LINE#         64
  C:F47CH         LINE#         65
  C:F47CH         LINE#         66
  C:F495H         LINE#         67
  C:F495H         LINE#         68
  C:F497H         LINE#         69
  C:F49CH         LINE#         70
  C:F4AEH         LINE#         71
  C:F4AEH         LINE#         72
  C:F4B3H         LINE#         73
  C:F4B5H         LINE#         75
  C:F4B5H         LINE#         76
  C:F4BAH         LINE#         77
  C:F4BAH         LINE#         78
  C:F4BAH         LINE#         79
  C:F4BCH         LINE#         80
  C:F4C6H         LINE#         81
  C:F4C6H         LINE#         82
  C:F4CAH         LINE#         83
  C:F4CAH         LINE#         84
  C:F4CDH         LINE#         85
  C:F4D2H         LINE#         86
  C:F4D2H         LINE#         87
  C:F4D2H         LINE#         88
  C:F4D4H         LINE#         89
  C:F4D4H         LINE#         91
  C:F4DAH         LINE#         92
  C:F4DAH         LINE#         93
  C:F4E0H         LINE#         94
  C:F4EEH         LINE#         95
  C:F4EEH         LINE#         96
  C:F4F0H         LINE#         97
  C:F4F2H         LINE#         98
  C:F4F4H         LINE#         100
  C:F4F4H         LINE#         101
  C:F4F6H         LINE#         102
  C:F503H         LINE#         103
  C:F503H         LINE#         104
BL51 BANKED LINKER/LOCATER V6.22                                                      12/10/2019  11:35:57  PAGE 100


  C:F505H         LINE#         105
  C:F505H         LINE#         106
  -------         ENDPROC       ISPPROCESS
  -------         PROC          ISPPROCESSCMD
  -------         DO            
  D:002DH         SYMBOL        i
  D:002EH         SYMBOL        DataChksum
  D:002FH         SYMBOL        SendState
  D:0030H         SYMBOL        j
  D:0032H         SYMBOL        UartStartAddr
  D:0034H         SYMBOL        UartDataLen
  D:0036H         SYMBOL        UartChksum
  -------         ENDDO         
  C:F509H         LINE#         116
  C:F509H         LINE#         117
  C:F509H         LINE#         121
  C:F530H         LINE#         122
  C:F530H         LINE#         124
  C:F539H         LINE#         125
  C:F539H         LINE#         126
  C:F53FH         LINE#         133
  C:F53FH         LINE#         134
  C:F545H         LINE#         135
  C:F54CH         LINE#         136
  C:F54CH         LINE#         138
  C:F54FH         LINE#         139
  C:F552H         LINE#         140
  C:F555H         LINE#         141
  C:F558H         LINE#         142
  C:F55BH         LINE#         143
  C:F55CH         LINE#         144
  C:F55DH         LINE#         145
  C:F55EH         LINE#         146
  C:F55FH         LINE#         149
  C:F562H         LINE#         150
  C:F572H         LINE#         151
  C:F572H         LINE#         152
  C:F575H         LINE#         153
  C:F58DH         LINE#         154
  C:F58DH         LINE#         155
  C:F590H         LINE#         156
  C:F592H         LINE#         157
  C:F592H         LINE#         158
  C:F59CH         LINE#         159
  C:F5A1H         LINE#         160
  C:F5A6H         LINE#         162
  C:F5A8H         LINE#         163
  C:F5ABH         LINE#         164
  C:F5AEH         LINE#         166
  C:F5B6H         LINE#         167
  C:F5B6H         LINE#         168
  C:F5B8H         LINE#         169
  C:F5BAH         LINE#         170
  C:F5BAH         LINE#         171
  C:F5BDH         LINE#         172
  C:F5CDH         LINE#         173
  C:F5D4H         LINE#         175
BL51 BANKED LINKER/LOCATER V6.22                                                      12/10/2019  11:35:57  PAGE 101


  C:F5E4H         LINE#         176
  C:F5E4H         LINE#         177
  C:F5E7H         LINE#         178
  C:F5E9H         LINE#         180
  C:F5E9H         LINE#         181
  C:F5EFH         LINE#         182
  C:F5F3H         LINE#         183
  C:F5F7H         LINE#         184
  C:F5FAH         LINE#         185
  C:F5FAH         LINE#         186
  C:F5FDH         LINE#         187
  C:F60BH         LINE#         188
  C:F60EH         LINE#         189
  C:F611H         LINE#         190
  C:F614H         LINE#         191
  C:F617H         LINE#         192
  C:F61AH         LINE#         193
  C:F61BH         LINE#         194
  C:F61CH         LINE#         195
  C:F61DH         LINE#         196
  C:F61EH         LINE#         197
  C:F620H         LINE#         198
  C:F627H         LINE#         199
  C:F62AH         LINE#         200
  C:F62AH         LINE#         201
  C:F62FH         LINE#         202
  C:F634H         LINE#         203
  C:F636H         LINE#         204
  C:F639H         LINE#         205
  C:F63CH         LINE#         208
  C:F648H         LINE#         209
  C:F648H         LINE#         210
  C:F64CH         LINE#         211
  C:F652H         LINE#         212
  C:F657H         LINE#         213
  C:F662H         LINE#         214
  C:F66EH         LINE#         215
  C:F67EH         LINE#         216
  C:F67EH         LINE#         217
  C:F681H         LINE#         218
  C:F699H         LINE#         219
  C:F6A3H         LINE#         221
  C:F6A8H         LINE#         222
  C:F6ADH         LINE#         223
  C:F6C0H         LINE#         224
  C:F6C0H         LINE#         225
  C:F6C2H         LINE#         226
  C:F6C5H         LINE#         227
  C:F6C8H         LINE#         229
  C:F6C8H         LINE#         230
  C:F6CAH         LINE#         231
  C:F6CDH         LINE#         232
  C:F6CDH         LINE#         233
  C:F6D0H         LINE#         235
  C:F6D5H         LINE#         236
  C:F6D5H         LINE#         237
  C:F6DBH         LINE#         238
BL51 BANKED LINKER/LOCATER V6.22                                                      12/10/2019  11:35:57  PAGE 102


  C:F6E7H         LINE#         239
  C:F6EAH         LINE#         240
  C:F6ECH         LINE#         241
  C:F6ECH         LINE#         242
  C:F6EFH         LINE#         243
  C:F70CH         LINE#         244
  C:F71CH         LINE#         245
  C:F723H         LINE#         246
  C:F731H         LINE#         248
  C:F736H         LINE#         249
  C:F73CH         LINE#         250
  C:F73EH         LINE#         251
  C:F74EH         LINE#         252
  C:F750H         LINE#         254
  C:F759H         LINE#         255
  C:F759H         LINE#         256
  C:F75EH         LINE#         257
  C:F762H         LINE#         258
  C:F766H         LINE#         259
  C:F76AH         LINE#         260
  C:F77EH         LINE#         261
  C:F782H         LINE#         262
  C:F787H         LINE#         263
  C:F78DH         LINE#         264
  C:F78FH         LINE#         265
  C:F79FH         LINE#         266
  C:F7A1H         LINE#         268
  C:F7A5H         LINE#         269
  C:F7A5H         LINE#         270
  C:F7ACH         LINE#         271
  C:F7ACH         LINE#         272
  C:F7AFH         LINE#         273
  C:F7B1H         LINE#         274
  C:F7B7H         LINE#         275
  C:F7BAH         LINE#         276
  C:F7BAH         LINE#         277
  C:F7BAH         LINE#         278
  C:F7BAH         LINE#         280
  C:F7BDH         LINE#         281
  C:F7BFH         LINE#         282
  -------         ENDPROC       ISPPROCESSCMD
  -------         ENDMOD        ISP

  -------         MODULE        ?C?CLDPTR
  C:0696H         PUBLIC        ?C?CLDPTR
  -------         ENDMOD        ?C?CLDPTR

  -------         MODULE        ?C?IMUL
  C:06AFH         PUBLIC        ?C?IMUL
  -------         ENDMOD        ?C?IMUL

  -------         MODULE        ?C?UIDIV
  C:06C1H         PUBLIC        ?C?UIDIV
  -------         ENDMOD        ?C?UIDIV

  -------         MODULE        ?C?SIDIV
  C:0716H         PUBLIC        ?C?SIDIV
BL51 BANKED LINKER/LOCATER V6.22                                                      12/10/2019  11:35:57  PAGE 103


  -------         ENDMOD        ?C?SIDIV

  -------         MODULE        ?C?IILDX
  C:074CH         PUBLIC        ?C?IILDX
  -------         ENDMOD        ?C?IILDX

  -------         MODULE        ?C?LMUL
  C:0762H         PUBLIC        ?C?LMUL
  -------         ENDMOD        ?C?LMUL

  -------         MODULE        ?C?ULDIV
  C:07EDH         PUBLIC        ?C?ULDIV
  -------         ENDMOD        ?C?ULDIV

  -------         MODULE        ?C?SLDIV
  C:41BAH         PUBLIC        ?C?SLDIV
  -------         ENDMOD        ?C?SLDIV

  -------         MODULE        ?C?LNEG
  C:087FH         PUBLIC        ?C?LNEG
  -------         ENDMOD        ?C?LNEG

  -------         MODULE        ?C?SLCMP
  C:088DH         PUBLIC        ?C?SLCMP
  -------         ENDMOD        ?C?SLCMP

  -------         MODULE        ?C?ULCMP
  C:08A3H         PUBLIC        ?C?ULCMP
  -------         ENDMOD        ?C?ULCMP

  -------         MODULE        ?C?ULSHR
  C:08B4H         PUBLIC        ?C?ULSHR
  -------         ENDMOD        ?C?ULSHR

  -------         MODULE        ?C?SLSHR
  C:08C7H         PUBLIC        ?C?SLSHR
  -------         ENDMOD        ?C?SLSHR

  -------         MODULE        ?C?LSHL
  C:08DBH         PUBLIC        ?C?LSHL
  -------         ENDMOD        ?C?LSHL

  -------         MODULE        ?C?LSTXDATA
  C:08EEH         PUBLIC        ?C?LSTXDATA
  -------         ENDMOD        ?C?LSTXDATA

  -------         MODULE        ?C?LSTKXDATA
  C:08FAH         PUBLIC        ?C?LSTKXDATA
  -------         ENDMOD        ?C?LSTKXDATA

  -------         MODULE        ?C?CCASE
  C:092BH         PUBLIC        ?C?CCASE
  -------         ENDMOD        ?C?CCASE

  -------         MODULE        ?C?LIMUL
  C:0951H         PUBLIC        ?C?LIMUL
  -------         ENDMOD        ?C?LIMUL
BL51 BANKED LINKER/LOCATER V6.22                                                      12/10/2019  11:35:57  PAGE 104



Program Size: data=148.4 xdata=1063 code=19260
LINK/LOCATE RUN COMPLETE.  0 WARNING(S),  0 ERROR(S)
